Archive member included to satisfy reference by file (symbol)

/home/james/devkitPro/libnds/lib/libdswifi9.a(wifi_arm9.o)
                              template.o (Wifi_ScanMode)
/home/james/devkitPro/libnds/lib/libdswifi9.a(sgIP_sockets.o)
                              template.o (socket)
/home/james/devkitPro/libnds/lib/libdswifi9.a(sgIP_memblock.o)
                              /home/james/devkitPro/libnds/lib/libdswifi9.a(wifi_arm9.o) (sgIP_memblock_allocHW)
/home/james/devkitPro/libnds/lib/libdswifi9.a(sgIP_TCP.o)
                              /home/james/devkitPro/libnds/lib/libdswifi9.a(sgIP_sockets.o) (sgIP_TCP_AllocRecord)
/home/james/devkitPro/libnds/lib/libdswifi9.a(sgIP_Hub.o)
                              /home/james/devkitPro/libnds/lib/libdswifi9.a(wifi_arm9.o) (sgIP_Hub_AddHardwareInterface)
/home/james/devkitPro/libnds/lib/libdswifi9.a(sgIP_DNS.o)
                              /home/james/devkitPro/libnds/lib/libdswifi9.a(wifi_arm9.o) (sgIP_DNS_GetUnusedRecord)
/home/james/devkitPro/libnds/lib/libdswifi9.a(spinlock.o)
                              /home/james/devkitPro/libnds/lib/libdswifi9.a(wifi_arm9.o) (SLasm_Acquire)
/home/james/devkitPro/libnds/lib/libdswifi9.a(sgIP_DHCP.o)
                              /home/james/devkitPro/libnds/lib/libdswifi9.a(wifi_arm9.o) (sgIP_DHCP_Start)
/home/james/devkitPro/libnds/lib/libdswifi9.a(sgIP_UDP.o)
                              /home/james/devkitPro/libnds/lib/libdswifi9.a(sgIP_sockets.o) (sgIP_UDP_AllocRecord)
/home/james/devkitPro/libnds/lib/libdswifi9.a(sgIP.o)
                              /home/james/devkitPro/libnds/lib/libdswifi9.a(wifi_arm9.o) (sgIP_Init)
/home/james/devkitPro/libnds/lib/libdswifi9.a(sgIP_ARP.o)
                              /home/james/devkitPro/libnds/lib/libdswifi9.a(sgIP.o) (sgIP_ARP_Init)
/home/james/devkitPro/libnds/lib/libdswifi9.a(sgIP_IP.o)
                              /home/james/devkitPro/libnds/lib/libdswifi9.a(sgIP.o) (sgIP_IP_ReceivePacket)
/home/james/devkitPro/libnds/lib/libdswifi9.a(sgIP_ICMP.o)
                              /home/james/devkitPro/libnds/lib/libdswifi9.a(sgIP_IP.o) (sgIP_ICMP_ReceivePacket)
/home/james/devkitPro/libnds/lib/libnds9.a(console.o)
                              template.o (consoleSelect)
/home/james/devkitPro/libnds/lib/libnds9.a(touch.o)
                              template.o (touchRead)
/home/james/devkitPro/libnds/lib/libnds9.a(background.o)
                              /home/james/devkitPro/libnds/lib/libnds9.a(console.o) (bgState)
/home/james/devkitPro/libnds/lib/libnds9.a(trig.o)
                              /home/james/devkitPro/libnds/lib/libnds9.a(background.o) (sinLerp)
/home/james/devkitPro/libnds/lib/libnds9.a(keyboard.o)
                              template.o (keyboardDemoInit)
/home/james/devkitPro/libnds/lib/libnds9.a(keys.o)
                              template.o (scanKeys)
/home/james/devkitPro/libnds/lib/libnds9.a(initSystem.o)
                              /home/james/devkitPro/devkitARM/bin/../lib/gcc/arm-none-eabi/6.3.0/../../../../arm-none-eabi/lib/thumb/ds_arm9_crt0.o (initSystem)
/home/james/devkitPro/libnds/lib/libnds9.a(timeSupport.o)
                              /home/james/devkitPro/libnds/lib/libnds9.a(initSystem.o) (__libnds_gtod)
/home/james/devkitPro/libnds/lib/libnds9.a(securearea.o)
                              /home/james/devkitPro/devkitARM/bin/../lib/gcc/arm-none-eabi/6.3.0/../../../../arm-none-eabi/lib/thumb/ds_arm9_crt0.o (__secure_area__)
/home/james/devkitPro/libnds/lib/libnds9.a(interrupts.o)
                              /home/james/devkitPro/libnds/lib/libdswifi9.a(wifi_arm9.o) (irqSet)
/home/james/devkitPro/libnds/lib/libnds9.a(libnds_exit.arm.o)
                              /home/james/devkitPro/devkitARM/bin/../lib/gcc/arm-none-eabi/6.3.0/../../../../arm-none-eabi/lib/thumb/ds_arm9_crt0.o (__libnds_exit)
/home/james/devkitPro/libnds/lib/libnds9.a(fifosystem.o)
                              /home/james/devkitPro/libnds/lib/libdswifi9.a(wifi_arm9.o) (fifoSetValue32Handler)
/home/james/devkitPro/libnds/lib/libnds9.a(dcache.o)
                              /home/james/devkitPro/libnds/lib/libdswifi9.a(wifi_arm9.o) (DC_FlushAll)
/home/james/devkitPro/libnds/lib/libnds9.a(mpu_setup.o)
                              /home/james/devkitPro/devkitARM/bin/../lib/gcc/arm-none-eabi/6.3.0/../../../../arm-none-eabi/lib/thumb/ds_arm9_crt0.o (__libnds_mpu_setup)
/home/james/devkitPro/libnds/lib/libnds9.a(IntrWait.o)
                              template.o (swiWaitForVBlank)
/home/james/devkitPro/libnds/lib/libnds9.a(cpu_clock.o)
                              /home/james/devkitPro/libnds/lib/libnds9.a(initSystem.o) (setCpuClock)
/home/james/devkitPro/libnds/lib/libnds9.a(interruptDispatcher.o)
                              /home/james/devkitPro/libnds/lib/libnds9.a(interrupts.o) (IntrMain)
/home/james/devkitPro/libnds/lib/libnds9.a(debugprint.o)
                              /home/james/devkitPro/libnds/lib/libnds9.a(console.o) (nocashWrite)
/home/james/devkitPro/libnds/lib/libnds9.a(swiSoftReset.o)
                              /home/james/devkitPro/libnds/lib/libnds9.a(fifosystem.o) (swiSoftReset)
/home/james/devkitPro/libnds/lib/libnds9.a(default_font.bin.o)
                              /home/james/devkitPro/libnds/lib/libnds9.a(console.o) (default_font_bin)
/home/james/devkitPro/libnds/lib/libnds9.a(keyboardGfx.o)
                              /home/james/devkitPro/libnds/lib/libnds9.a(keyboard.o) (keyboardGfxTiles)
/home/james/devkitPro/libnds/lib/libnds9.a(video.o)
                              /home/james/devkitPro/libnds/lib/libnds9.a(initSystem.o) (vramDefault)
/home/james/devkitPro/libnds/lib/libnds9.a(system.o)
                              /home/james/devkitPro/libnds/lib/libnds9.a(initSystem.o) (systemValueHandler)
/home/james/devkitPro/libnds/lib/libnds9.a(decompress.o)
                              /home/james/devkitPro/libnds/lib/libnds9.a(keyboard.o) (decompress)
/home/james/devkitPro/libnds/lib/libnds9.a(syscalls.o)
                              /home/james/devkitPro/libnds/lib/libnds9.a(decompress.o) (swiDecompressLZSSVram)
/home/james/devkitPro/libnds/lib/libnds9.a(biosCalls.o)
                              /home/james/devkitPro/libnds/lib/libnds9.a(system.o) (swiDelay)
/home/james/devkitPro/devkitARM/bin/../lib/gcc/arm-none-eabi/6.3.0/thumb/libgcc.a(_thumb1_case_uqi.o)
                              /home/james/devkitPro/libnds/lib/libdswifi9.a(wifi_arm9.o) (__gnu_thumb1_case_uqi)
/home/james/devkitPro/devkitARM/bin/../lib/gcc/arm-none-eabi/6.3.0/thumb/libgcc.a(_thumb1_case_uhi.o)
                              /home/james/devkitPro/libnds/lib/libdswifi9.a(wifi_arm9.o) (__gnu_thumb1_case_uhi)
/home/james/devkitPro/devkitARM/bin/../lib/gcc/arm-none-eabi/6.3.0/thumb/libgcc.a(_udivsi3.o)
                              /home/james/devkitPro/libnds/lib/libdswifi9.a(sgIP_DHCP.o) (__aeabi_uidiv)
/home/james/devkitPro/devkitARM/bin/../lib/gcc/arm-none-eabi/6.3.0/thumb/libgcc.a(_divsi3.o)
                              template.o (__aeabi_idiv)
/home/james/devkitPro/devkitARM/bin/../lib/gcc/arm-none-eabi/6.3.0/thumb/libgcc.a(_dvmd_tls.o)
                              /home/james/devkitPro/devkitARM/bin/../lib/gcc/arm-none-eabi/6.3.0/thumb/libgcc.a(_udivsi3.o) (__aeabi_idiv0)
/home/james/devkitPro/devkitARM/bin/../lib/gcc/arm-none-eabi/6.3.0/../../../../arm-none-eabi/lib/thumb/libg.a(lib_a-bsearch.o)
                              /home/james/devkitPro/libnds/lib/libnds9.a(trig.o) (bsearch)
/home/james/devkitPro/devkitARM/bin/../lib/gcc/arm-none-eabi/6.3.0/../../../../arm-none-eabi/lib/thumb/libg.a(lib_a-errno.o)
                              /home/james/devkitPro/libnds/lib/libdswifi9.a(sgIP_sockets.o) (__errno)
/home/james/devkitPro/devkitARM/bin/../lib/gcc/arm-none-eabi/6.3.0/../../../../arm-none-eabi/lib/thumb/libg.a(lib_a-init.o)
                              /home/james/devkitPro/devkitARM/bin/../lib/gcc/arm-none-eabi/6.3.0/../../../../arm-none-eabi/lib/thumb/ds_arm9_crt0.o (__libc_init_array)
/home/james/devkitPro/devkitARM/bin/../lib/gcc/arm-none-eabi/6.3.0/../../../../arm-none-eabi/lib/thumb/libg.a(lib_a-iprintf.o)
                              template.o (iprintf)
/home/james/devkitPro/devkitARM/bin/../lib/gcc/arm-none-eabi/6.3.0/../../../../arm-none-eabi/lib/thumb/libg.a(lib_a-malloc.o)
                              /home/james/devkitPro/libnds/lib/libdswifi9.a(wifi_arm9.o) (malloc)
/home/james/devkitPro/devkitARM/bin/../lib/gcc/arm-none-eabi/6.3.0/../../../../arm-none-eabi/lib/thumb/libg.a(lib_a-mallocr.o)
                              /home/james/devkitPro/devkitARM/bin/../lib/gcc/arm-none-eabi/6.3.0/../../../../arm-none-eabi/lib/thumb/libg.a(lib_a-malloc.o) (_malloc_r)
/home/james/devkitPro/devkitARM/bin/../lib/gcc/arm-none-eabi/6.3.0/../../../../arm-none-eabi/lib/thumb/libg.a(lib_a-memcpy-stub.o)
                              template.o (memcpy)
/home/james/devkitPro/devkitARM/bin/../lib/gcc/arm-none-eabi/6.3.0/../../../../arm-none-eabi/lib/thumb/libg.a(lib_a-memset.o)
                              template.o (memset)
/home/james/devkitPro/devkitARM/bin/../lib/gcc/arm-none-eabi/6.3.0/../../../../arm-none-eabi/lib/thumb/libg.a(lib_a-mlock.o)
                              /home/james/devkitPro/devkitARM/bin/../lib/gcc/arm-none-eabi/6.3.0/../../../../arm-none-eabi/lib/thumb/libg.a(lib_a-mallocr.o) (__malloc_lock)
/home/james/devkitPro/devkitARM/bin/../lib/gcc/arm-none-eabi/6.3.0/../../../../arm-none-eabi/lib/thumb/libg.a(lib_a-perror.o)
                              template.o (perror)
/home/james/devkitPro/devkitARM/bin/../lib/gcc/arm-none-eabi/6.3.0/../../../../arm-none-eabi/lib/thumb/libg.a(lib_a-scanf.o)
                              template.o (scanf)
/home/james/devkitPro/devkitARM/bin/../lib/gcc/arm-none-eabi/6.3.0/../../../../arm-none-eabi/lib/thumb/libg.a(lib_a-setvbuf.o)
                              /home/james/devkitPro/libnds/lib/libnds9.a(console.o) (setvbuf)
/home/james/devkitPro/devkitARM/bin/../lib/gcc/arm-none-eabi/6.3.0/../../../../arm-none-eabi/lib/thumb/libg.a(lib_a-siscanf.o)
                              /home/james/devkitPro/libnds/lib/libnds9.a(console.o) (siscanf)
/home/james/devkitPro/devkitARM/bin/../lib/gcc/arm-none-eabi/6.3.0/../../../../arm-none-eabi/lib/thumb/libg.a(lib_a-snprintf.o)
                              template.o (snprintf)
/home/james/devkitPro/devkitARM/bin/../lib/gcc/arm-none-eabi/6.3.0/../../../../arm-none-eabi/lib/thumb/libg.a(lib_a-stdio.o)
                              /home/james/devkitPro/devkitARM/bin/../lib/gcc/arm-none-eabi/6.3.0/../../../../arm-none-eabi/lib/thumb/libg.a(lib_a-siscanf.o) (__seofread)
/home/james/devkitPro/devkitARM/bin/../lib/gcc/arm-none-eabi/6.3.0/../../../../arm-none-eabi/lib/thumb/libg.a(lib_a-strcpy.o)
                              /home/james/devkitPro/libnds/lib/libdswifi9.a(sgIP_DHCP.o) (strcpy)
/home/james/devkitPro/devkitARM/bin/../lib/gcc/arm-none-eabi/6.3.0/../../../../arm-none-eabi/lib/thumb/libg.a(lib_a-strerror.o)
                              /home/james/devkitPro/devkitARM/bin/../lib/gcc/arm-none-eabi/6.3.0/../../../../arm-none-eabi/lib/thumb/libg.a(lib_a-perror.o) (_strerror_r)
/home/james/devkitPro/devkitARM/bin/../lib/gcc/arm-none-eabi/6.3.0/../../../../arm-none-eabi/lib/thumb/libg.a(lib_a-strlen-stub.o)
                              template.o (strlen)
/home/james/devkitPro/devkitARM/bin/../lib/gcc/arm-none-eabi/6.3.0/../../../../arm-none-eabi/lib/thumb/libg.a(lib_a-strncpy.o)
                              /home/james/devkitPro/libnds/lib/libdswifi9.a(sgIP_DHCP.o) (strncpy)
/home/james/devkitPro/devkitARM/bin/../lib/gcc/arm-none-eabi/6.3.0/../../../../arm-none-eabi/lib/thumb/libg.a(lib_a-svfiscanf.o)
                              /home/james/devkitPro/devkitARM/bin/../lib/gcc/arm-none-eabi/6.3.0/../../../../arm-none-eabi/lib/thumb/libg.a(lib_a-siscanf.o) (__ssvfiscanf_r)
/home/james/devkitPro/devkitARM/bin/../lib/gcc/arm-none-eabi/6.3.0/../../../../arm-none-eabi/lib/thumb/libg.a(lib_a-svfprintf.o)
                              /home/james/devkitPro/devkitARM/bin/../lib/gcc/arm-none-eabi/6.3.0/../../../../arm-none-eabi/lib/thumb/libg.a(lib_a-snprintf.o) (_svfprintf_r)
/home/james/devkitPro/devkitARM/bin/../lib/gcc/arm-none-eabi/6.3.0/../../../../arm-none-eabi/lib/thumb/libg.a(lib_a-ungetc.o)
                              /home/james/devkitPro/devkitARM/bin/../lib/gcc/arm-none-eabi/6.3.0/../../../../arm-none-eabi/lib/thumb/libg.a(lib_a-svfiscanf.o) (__submore)
/home/james/devkitPro/devkitARM/bin/../lib/gcc/arm-none-eabi/6.3.0/../../../../arm-none-eabi/lib/thumb/libg.a(lib_a-u_strerr.o)
                              /home/james/devkitPro/devkitARM/bin/../lib/gcc/arm-none-eabi/6.3.0/../../../../arm-none-eabi/lib/thumb/libg.a(lib_a-strerror.o) (_user_strerror)
/home/james/devkitPro/devkitARM/bin/../lib/gcc/arm-none-eabi/6.3.0/../../../../arm-none-eabi/lib/thumb/libg.a(lib_a-vfiprintf.o)
                              /home/james/devkitPro/devkitARM/bin/../lib/gcc/arm-none-eabi/6.3.0/../../../../arm-none-eabi/lib/thumb/libg.a(lib_a-iprintf.o) (_vfiprintf_r)
/home/james/devkitPro/devkitARM/bin/../lib/gcc/arm-none-eabi/6.3.0/../../../../arm-none-eabi/lib/thumb/libg.a(lib_a-vfscanf.o)
                              /home/james/devkitPro/devkitARM/bin/../lib/gcc/arm-none-eabi/6.3.0/../../../../arm-none-eabi/lib/thumb/libg.a(lib_a-scanf.o) (_vfscanf_r)
/home/james/devkitPro/devkitARM/bin/../lib/gcc/arm-none-eabi/6.3.0/../../../../arm-none-eabi/lib/thumb/libg.a(lib_a-wcrtomb.o)
                              /home/james/devkitPro/devkitARM/bin/../lib/gcc/arm-none-eabi/6.3.0/../../../../arm-none-eabi/lib/thumb/libg.a(lib_a-svfprintf.o) (_wcrtomb_r)
/home/james/devkitPro/devkitARM/bin/../lib/gcc/arm-none-eabi/6.3.0/../../../../arm-none-eabi/lib/thumb/libg.a(lib_a-wcsrtombs.o)
                              /home/james/devkitPro/devkitARM/bin/../lib/gcc/arm-none-eabi/6.3.0/../../../../arm-none-eabi/lib/thumb/libg.a(lib_a-svfprintf.o) (_wcsrtombs_r)
/home/james/devkitPro/devkitARM/bin/../lib/gcc/arm-none-eabi/6.3.0/../../../../arm-none-eabi/lib/thumb/libg.a(lib_a-wsetup.o)
                              /home/james/devkitPro/devkitARM/bin/../lib/gcc/arm-none-eabi/6.3.0/../../../../arm-none-eabi/lib/thumb/libg.a(lib_a-vfiprintf.o) (__swsetup_r)
/home/james/devkitPro/devkitARM/bin/../lib/gcc/arm-none-eabi/6.3.0/../../../../arm-none-eabi/lib/thumb/libg.a(lib_a-dtoa.o)
                              /home/james/devkitPro/devkitARM/bin/../lib/gcc/arm-none-eabi/6.3.0/../../../../arm-none-eabi/lib/thumb/libg.a(lib_a-svfprintf.o) (_dtoa_r)
/home/james/devkitPro/devkitARM/bin/../lib/gcc/arm-none-eabi/6.3.0/../../../../arm-none-eabi/lib/thumb/libg.a(lib_a-fflush.o)
                              /home/james/devkitPro/devkitARM/bin/../lib/gcc/arm-none-eabi/6.3.0/../../../../arm-none-eabi/lib/thumb/libg.a(lib_a-setvbuf.o) (_fflush_r)
/home/james/devkitPro/devkitARM/bin/../lib/gcc/arm-none-eabi/6.3.0/../../../../arm-none-eabi/lib/thumb/libg.a(lib_a-findfp.o)
                              /home/james/devkitPro/devkitARM/bin/../lib/gcc/arm-none-eabi/6.3.0/../../../../arm-none-eabi/lib/thumb/libg.a(lib_a-setvbuf.o) (__sinit)
/home/james/devkitPro/devkitARM/bin/../lib/gcc/arm-none-eabi/6.3.0/../../../../arm-none-eabi/lib/thumb/libg.a(lib_a-fputc.o)
                              /home/james/devkitPro/devkitARM/bin/../lib/gcc/arm-none-eabi/6.3.0/../../../../arm-none-eabi/lib/thumb/libg.a(lib_a-perror.o) (fputc)
/home/james/devkitPro/devkitARM/bin/../lib/gcc/arm-none-eabi/6.3.0/../../../../arm-none-eabi/lib/thumb/libg.a(lib_a-fputs.o)
                              /home/james/devkitPro/devkitARM/bin/../lib/gcc/arm-none-eabi/6.3.0/../../../../arm-none-eabi/lib/thumb/libg.a(lib_a-perror.o) (fputs)
/home/james/devkitPro/devkitARM/bin/../lib/gcc/arm-none-eabi/6.3.0/../../../../arm-none-eabi/lib/thumb/libg.a(lib_a-fread.o)
                              /home/james/devkitPro/devkitARM/bin/../lib/gcc/arm-none-eabi/6.3.0/../../../../arm-none-eabi/lib/thumb/libg.a(lib_a-vfscanf.o) (_fread_r)
/home/james/devkitPro/devkitARM/bin/../lib/gcc/arm-none-eabi/6.3.0/../../../../arm-none-eabi/lib/thumb/libg.a(lib_a-freer.o)
                              /home/james/devkitPro/devkitARM/bin/../lib/gcc/arm-none-eabi/6.3.0/../../../../arm-none-eabi/lib/thumb/libg.a(lib_a-malloc.o) (_free_r)
/home/james/devkitPro/devkitARM/bin/../lib/gcc/arm-none-eabi/6.3.0/../../../../arm-none-eabi/lib/thumb/libg.a(lib_a-fvwrite.o)
                              /home/james/devkitPro/devkitARM/bin/../lib/gcc/arm-none-eabi/6.3.0/../../../../arm-none-eabi/lib/thumb/libg.a(lib_a-vfiprintf.o) (__sfvwrite_r)
/home/james/devkitPro/devkitARM/bin/../lib/gcc/arm-none-eabi/6.3.0/../../../../arm-none-eabi/lib/thumb/libg.a(lib_a-fwalk.o)
                              /home/james/devkitPro/devkitARM/bin/../lib/gcc/arm-none-eabi/6.3.0/../../../../arm-none-eabi/lib/thumb/libg.a(lib_a-findfp.o) (_fwalk)
/home/james/devkitPro/devkitARM/bin/../lib/gcc/arm-none-eabi/6.3.0/../../../../arm-none-eabi/lib/thumb/libg.a(lib_a-impure.o)
                              /home/james/devkitPro/devkitARM/bin/../lib/gcc/arm-none-eabi/6.3.0/../../../../arm-none-eabi/lib/thumb/libg.a(lib_a-fflush.o) (_global_impure_ptr)
/home/james/devkitPro/devkitARM/bin/../lib/gcc/arm-none-eabi/6.3.0/../../../../arm-none-eabi/lib/thumb/libg.a(lib_a-iswspace.o)
                              /home/james/devkitPro/devkitARM/bin/../lib/gcc/arm-none-eabi/6.3.0/../../../../arm-none-eabi/lib/thumb/libg.a(lib_a-svfiscanf.o) (iswspace)
/home/james/devkitPro/devkitARM/bin/../lib/gcc/arm-none-eabi/6.3.0/../../../../arm-none-eabi/lib/thumb/libg.a(lib_a-jp2uc.o)
                              /home/james/devkitPro/devkitARM/bin/../lib/gcc/arm-none-eabi/6.3.0/../../../../arm-none-eabi/lib/thumb/libg.a(lib_a-iswspace.o) (_jp2uc)
/home/james/devkitPro/devkitARM/bin/../lib/gcc/arm-none-eabi/6.3.0/../../../../arm-none-eabi/lib/thumb/libg.a(lib_a-localeconv.o)
                              /home/james/devkitPro/devkitARM/bin/../lib/gcc/arm-none-eabi/6.3.0/../../../../arm-none-eabi/lib/thumb/libg.a(lib_a-svfprintf.o) (_localeconv_r)
/home/james/devkitPro/devkitARM/bin/../lib/gcc/arm-none-eabi/6.3.0/../../../../arm-none-eabi/lib/thumb/libg.a(lib_a-locale.o)
                              /home/james/devkitPro/devkitARM/bin/../lib/gcc/arm-none-eabi/6.3.0/../../../../arm-none-eabi/lib/thumb/libg.a(lib_a-svfiscanf.o) (__locale_mb_cur_max)
/home/james/devkitPro/devkitARM/bin/../lib/gcc/arm-none-eabi/6.3.0/../../../../arm-none-eabi/lib/thumb/libg.a(lib_a-makebuf.o)
                              /home/james/devkitPro/devkitARM/bin/../lib/gcc/arm-none-eabi/6.3.0/../../../../arm-none-eabi/lib/thumb/libg.a(lib_a-setvbuf.o) (__swhatbuf_r)
/home/james/devkitPro/devkitARM/bin/../lib/gcc/arm-none-eabi/6.3.0/../../../../arm-none-eabi/lib/thumb/libg.a(lib_a-mbrtowc.o)
                              /home/james/devkitPro/devkitARM/bin/../lib/gcc/arm-none-eabi/6.3.0/../../../../arm-none-eabi/lib/thumb/libg.a(lib_a-svfiscanf.o) (_mbrtowc_r)
/home/james/devkitPro/devkitARM/bin/../lib/gcc/arm-none-eabi/6.3.0/../../../../arm-none-eabi/lib/thumb/libg.a(lib_a-mbtowc_r.o)
                              /home/james/devkitPro/devkitARM/bin/../lib/gcc/arm-none-eabi/6.3.0/../../../../arm-none-eabi/lib/thumb/libg.a(lib_a-locale.o) (__ascii_mbtowc)
/home/james/devkitPro/devkitARM/bin/../lib/gcc/arm-none-eabi/6.3.0/../../../../arm-none-eabi/lib/thumb/libg.a(lib_a-memchr-stub.o)
                              /home/james/devkitPro/devkitARM/bin/../lib/gcc/arm-none-eabi/6.3.0/../../../../arm-none-eabi/lib/thumb/libg.a(lib_a-svfprintf.o) (memchr)
/home/james/devkitPro/devkitARM/bin/../lib/gcc/arm-none-eabi/6.3.0/../../../../arm-none-eabi/lib/thumb/libg.a(lib_a-memmove.o)
                              /home/james/devkitPro/devkitARM/bin/../lib/gcc/arm-none-eabi/6.3.0/../../../../arm-none-eabi/lib/thumb/libg.a(lib_a-fvwrite.o) (memmove)
/home/james/devkitPro/devkitARM/bin/../lib/gcc/arm-none-eabi/6.3.0/../../../../arm-none-eabi/lib/thumb/libg.a(lib_a-mprec.o)
                              /home/james/devkitPro/devkitARM/bin/../lib/gcc/arm-none-eabi/6.3.0/../../../../arm-none-eabi/lib/thumb/libg.a(lib_a-dtoa.o) (_Balloc)
/home/james/devkitPro/devkitARM/bin/../lib/gcc/arm-none-eabi/6.3.0/../../../../arm-none-eabi/lib/thumb/libg.a(lib_a-putc.o)
                              /home/james/devkitPro/devkitARM/bin/../lib/gcc/arm-none-eabi/6.3.0/../../../../arm-none-eabi/lib/thumb/libg.a(lib_a-fputc.o) (_putc_r)
/home/james/devkitPro/devkitARM/bin/../lib/gcc/arm-none-eabi/6.3.0/../../../../arm-none-eabi/lib/thumb/libg.a(lib_a-reallocr.o)
                              /home/james/devkitPro/devkitARM/bin/../lib/gcc/arm-none-eabi/6.3.0/../../../../arm-none-eabi/lib/thumb/libg.a(lib_a-ungetc.o) (_realloc_r)
/home/james/devkitPro/devkitARM/bin/../lib/gcc/arm-none-eabi/6.3.0/../../../../arm-none-eabi/lib/thumb/libg.a(lib_a-refill.o)
                              /home/james/devkitPro/devkitARM/bin/../lib/gcc/arm-none-eabi/6.3.0/../../../../arm-none-eabi/lib/thumb/libg.a(lib_a-vfscanf.o) (__srefill_r)
/home/james/devkitPro/devkitARM/bin/../lib/gcc/arm-none-eabi/6.3.0/../../../../arm-none-eabi/lib/thumb/libg.a(lib_a-sccl.o)
                              /home/james/devkitPro/devkitARM/bin/../lib/gcc/arm-none-eabi/6.3.0/../../../../arm-none-eabi/lib/thumb/libg.a(lib_a-svfiscanf.o) (__sccl)
/home/james/devkitPro/devkitARM/bin/../lib/gcc/arm-none-eabi/6.3.0/../../../../arm-none-eabi/lib/thumb/libg.a(lib_a-sf_nan.o)
                              /home/james/devkitPro/devkitARM/bin/../lib/gcc/arm-none-eabi/6.3.0/../../../../arm-none-eabi/lib/thumb/libg.a(lib_a-vfscanf.o) (nanf)
/home/james/devkitPro/devkitARM/bin/../lib/gcc/arm-none-eabi/6.3.0/../../../../arm-none-eabi/lib/thumb/libg.a(lib_a-s_frexp.o)
                              /home/james/devkitPro/devkitARM/bin/../lib/gcc/arm-none-eabi/6.3.0/../../../../arm-none-eabi/lib/thumb/libg.a(lib_a-svfprintf.o) (frexp)
/home/james/devkitPro/devkitARM/bin/../lib/gcc/arm-none-eabi/6.3.0/../../../../arm-none-eabi/lib/thumb/libg.a(lib_a-sprintf.o)
                              /home/james/devkitPro/devkitARM/bin/../lib/gcc/arm-none-eabi/6.3.0/../../../../arm-none-eabi/lib/thumb/libg.a(lib_a-vfscanf.o) (sprintf)
/home/james/devkitPro/devkitARM/bin/../lib/gcc/arm-none-eabi/6.3.0/../../../../arm-none-eabi/lib/thumb/libg.a(lib_a-stpncpy.o)
                              /home/james/devkitPro/devkitARM/bin/../lib/gcc/arm-none-eabi/6.3.0/../../../../arm-none-eabi/lib/thumb/libg.a(lib_a-vfscanf.o) (stpncpy)
/home/james/devkitPro/devkitARM/bin/../lib/gcc/arm-none-eabi/6.3.0/../../../../arm-none-eabi/lib/thumb/libg.a(lib_a-strcasecmp.o)
                              /home/james/devkitPro/devkitARM/bin/../lib/gcc/arm-none-eabi/6.3.0/../../../../arm-none-eabi/lib/thumb/libg.a(lib_a-locale.o) (strcasecmp)
/home/james/devkitPro/devkitARM/bin/../lib/gcc/arm-none-eabi/6.3.0/../../../../arm-none-eabi/lib/thumb/libg.a(lib_a-strcat.o)
                              /home/james/devkitPro/devkitARM/bin/../lib/gcc/arm-none-eabi/6.3.0/../../../../arm-none-eabi/lib/thumb/libg.a(lib_a-locale.o) (strcat)
/home/james/devkitPro/devkitARM/bin/../lib/gcc/arm-none-eabi/6.3.0/../../../../arm-none-eabi/lib/thumb/libg.a(lib_a-strchr.o)
                              /home/james/devkitPro/devkitARM/bin/../lib/gcc/arm-none-eabi/6.3.0/../../../../arm-none-eabi/lib/thumb/libg.a(lib_a-locale.o) (strchr)
/home/james/devkitPro/devkitARM/bin/../lib/gcc/arm-none-eabi/6.3.0/../../../../arm-none-eabi/lib/thumb/libg.a(lib_a-strcmp.o)
                              /home/james/devkitPro/devkitARM/bin/../lib/gcc/arm-none-eabi/6.3.0/../../../../arm-none-eabi/lib/thumb/libg.a(lib_a-jp2uc.o) (strcmp)
/home/james/devkitPro/devkitARM/bin/../lib/gcc/arm-none-eabi/6.3.0/../../../../arm-none-eabi/lib/thumb/libg.a(lib_a-strlcpy.o)
                              /home/james/devkitPro/devkitARM/bin/../lib/gcc/arm-none-eabi/6.3.0/../../../../arm-none-eabi/lib/thumb/libg.a(lib_a-locale.o) (strlcpy)
/home/james/devkitPro/devkitARM/bin/../lib/gcc/arm-none-eabi/6.3.0/../../../../arm-none-eabi/lib/thumb/libg.a(lib_a-strncasecmp.o)
                              /home/james/devkitPro/devkitARM/bin/../lib/gcc/arm-none-eabi/6.3.0/../../../../arm-none-eabi/lib/thumb/libg.a(lib_a-locale.o) (strncasecmp)
/home/james/devkitPro/devkitARM/bin/../lib/gcc/arm-none-eabi/6.3.0/../../../../arm-none-eabi/lib/thumb/libg.a(lib_a-strncmp.o)
                              /home/james/devkitPro/devkitARM/bin/../lib/gcc/arm-none-eabi/6.3.0/../../../../arm-none-eabi/lib/thumb/libg.a(lib_a-locale.o) (strncmp)
/home/james/devkitPro/devkitARM/bin/../lib/gcc/arm-none-eabi/6.3.0/../../../../arm-none-eabi/lib/thumb/libg.a(lib_a-strtod.o)
                              /home/james/devkitPro/devkitARM/bin/../lib/gcc/arm-none-eabi/6.3.0/../../../../arm-none-eabi/lib/thumb/libg.a(lib_a-vfscanf.o) (_strtod_r)
/home/james/devkitPro/devkitARM/bin/../lib/gcc/arm-none-eabi/6.3.0/../../../../arm-none-eabi/lib/thumb/libg.a(lib_a-strtoll.o)
                              /home/james/devkitPro/devkitARM/bin/../lib/gcc/arm-none-eabi/6.3.0/../../../../arm-none-eabi/lib/thumb/libg.a(lib_a-svfiscanf.o) (_strtoll_r)
/home/james/devkitPro/devkitARM/bin/../lib/gcc/arm-none-eabi/6.3.0/../../../../arm-none-eabi/lib/thumb/libg.a(lib_a-strtol.o)
                              /home/james/devkitPro/devkitARM/bin/../lib/gcc/arm-none-eabi/6.3.0/../../../../arm-none-eabi/lib/thumb/libg.a(lib_a-svfiscanf.o) (_strtol_r)
/home/james/devkitPro/devkitARM/bin/../lib/gcc/arm-none-eabi/6.3.0/../../../../arm-none-eabi/lib/thumb/libg.a(lib_a-strtoull.o)
                              /home/james/devkitPro/devkitARM/bin/../lib/gcc/arm-none-eabi/6.3.0/../../../../arm-none-eabi/lib/thumb/libg.a(lib_a-svfiscanf.o) (_strtoull_r)
/home/james/devkitPro/devkitARM/bin/../lib/gcc/arm-none-eabi/6.3.0/../../../../arm-none-eabi/lib/thumb/libg.a(lib_a-strtoul.o)
                              /home/james/devkitPro/devkitARM/bin/../lib/gcc/arm-none-eabi/6.3.0/../../../../arm-none-eabi/lib/thumb/libg.a(lib_a-svfiscanf.o) (_strtoul_r)
/home/james/devkitPro/devkitARM/bin/../lib/gcc/arm-none-eabi/6.3.0/../../../../arm-none-eabi/lib/thumb/libg.a(lib_a-svfiprintf.o)
                              /home/james/devkitPro/devkitARM/bin/../lib/gcc/arm-none-eabi/6.3.0/../../../../arm-none-eabi/lib/thumb/libg.a(lib_a-svfprintf.o) (__ssprint_r)
/home/james/devkitPro/devkitARM/bin/../lib/gcc/arm-none-eabi/6.3.0/../../../../arm-none-eabi/lib/thumb/libg.a(lib_a-wbuf.o)
                              /home/james/devkitPro/devkitARM/bin/../lib/gcc/arm-none-eabi/6.3.0/../../../../arm-none-eabi/lib/thumb/libg.a(lib_a-putc.o) (__swbuf_r)
/home/james/devkitPro/devkitARM/bin/../lib/gcc/arm-none-eabi/6.3.0/../../../../arm-none-eabi/lib/thumb/libg.a(lib_a-wcsnrtombs.o)
                              /home/james/devkitPro/devkitARM/bin/../lib/gcc/arm-none-eabi/6.3.0/../../../../arm-none-eabi/lib/thumb/libg.a(lib_a-wcsrtombs.o) (_wcsnrtombs_r)
/home/james/devkitPro/devkitARM/bin/../lib/gcc/arm-none-eabi/6.3.0/../../../../arm-none-eabi/lib/thumb/libg.a(lib_a-wctomb_r.o)
                              /home/james/devkitPro/devkitARM/bin/../lib/gcc/arm-none-eabi/6.3.0/../../../../arm-none-eabi/lib/thumb/libg.a(lib_a-locale.o) (__ascii_wctomb)
/home/james/devkitPro/devkitARM/bin/../lib/gcc/arm-none-eabi/6.3.0/../../../../arm-none-eabi/lib/thumb/libg.a(lib_a-callocr.o)
                              /home/james/devkitPro/devkitARM/bin/../lib/gcc/arm-none-eabi/6.3.0/../../../../arm-none-eabi/lib/thumb/libg.a(lib_a-mprec.o) (_calloc_r)
/home/james/devkitPro/devkitARM/bin/../lib/gcc/arm-none-eabi/6.3.0/../../../../arm-none-eabi/lib/thumb/libg.a(lib_a-ctype_.o)
                              /home/james/devkitPro/devkitARM/bin/../lib/gcc/arm-none-eabi/6.3.0/../../../../arm-none-eabi/lib/thumb/libg.a(lib_a-locale.o) (__set_ctype)
/home/james/devkitPro/devkitARM/bin/../lib/gcc/arm-none-eabi/6.3.0/../../../../arm-none-eabi/lib/thumb/libg.a(lib_a-fclose.o)
                              /home/james/devkitPro/devkitARM/bin/../lib/gcc/arm-none-eabi/6.3.0/../../../../arm-none-eabi/lib/thumb/libg.a(lib_a-findfp.o) (_fclose_r)
/home/james/devkitPro/devkitARM/bin/../lib/gcc/arm-none-eabi/6.3.0/../../../../arm-none-eabi/lib/thumb/libg.a(lib_a-gdtoa-gethex.o)
                              /home/james/devkitPro/devkitARM/bin/../lib/gcc/arm-none-eabi/6.3.0/../../../../arm-none-eabi/lib/thumb/libg.a(lib_a-strtod.o) (__gethex)
/home/james/devkitPro/devkitARM/bin/../lib/gcc/arm-none-eabi/6.3.0/../../../../arm-none-eabi/lib/thumb/libg.a(lib_a-gdtoa-hexnan.o)
                              /home/james/devkitPro/devkitARM/bin/../lib/gcc/arm-none-eabi/6.3.0/../../../../arm-none-eabi/lib/thumb/libg.a(lib_a-strtod.o) (__match)
/home/james/devkitPro/devkitARM/bin/../lib/gcc/arm-none-eabi/6.3.0/../../../../arm-none-eabi/lib/thumb/libg.a(lib_a-getenv_r.o)
                              /home/james/devkitPro/devkitARM/bin/../lib/gcc/arm-none-eabi/6.3.0/../../../../arm-none-eabi/lib/thumb/libg.a(lib_a-locale.o) (_getenv_r)
/home/james/devkitPro/devkitARM/bin/../lib/gcc/arm-none-eabi/6.3.0/../../../../arm-none-eabi/lib/thumb/libg.a(lib_a-environ.o)
                              /home/james/devkitPro/devkitARM/bin/../lib/gcc/arm-none-eabi/6.3.0/../../../../arm-none-eabi/lib/thumb/libg.a(lib_a-getenv_r.o) (environ)
/home/james/devkitPro/devkitARM/bin/../lib/gcc/arm-none-eabi/6.3.0/../../../../arm-none-eabi/lib/thumb/libg.a(lib_a-envlock.o)
                              /home/james/devkitPro/devkitARM/bin/../lib/gcc/arm-none-eabi/6.3.0/../../../../arm-none-eabi/lib/thumb/libg.a(lib_a-getenv_r.o) (__env_lock)
/home/james/devkitPro/devkitARM/bin/../lib/gcc/arm-none-eabi/6.3.0/../../../../arm-none-eabi/lib/thumb/libsysbase.a(iosupport.o)
                              /home/james/devkitPro/libnds/lib/libnds9.a(console.o) (devoptab_list)
/home/james/devkitPro/devkitARM/bin/../lib/gcc/arm-none-eabi/6.3.0/../../../../arm-none-eabi/lib/thumb/libsysbase.a(close.o)
                              /home/james/devkitPro/devkitARM/bin/../lib/gcc/arm-none-eabi/6.3.0/../../../../arm-none-eabi/lib/thumb/libg.a(lib_a-stdio.o) (_close_r)
/home/james/devkitPro/devkitARM/bin/../lib/gcc/arm-none-eabi/6.3.0/../../../../arm-none-eabi/lib/thumb/libsysbase.a(fstat.o)
                              /home/james/devkitPro/devkitARM/bin/../lib/gcc/arm-none-eabi/6.3.0/../../../../arm-none-eabi/lib/thumb/libg.a(lib_a-makebuf.o) (_fstat_r)
/home/james/devkitPro/devkitARM/bin/../lib/gcc/arm-none-eabi/6.3.0/../../../../arm-none-eabi/lib/thumb/libsysbase.a(isatty.o)
                              /home/james/devkitPro/devkitARM/bin/../lib/gcc/arm-none-eabi/6.3.0/../../../../arm-none-eabi/lib/thumb/libg.a(lib_a-makebuf.o) (_isatty_r)
/home/james/devkitPro/devkitARM/bin/../lib/gcc/arm-none-eabi/6.3.0/../../../../arm-none-eabi/lib/thumb/libsysbase.a(lseek.o)
                              /home/james/devkitPro/devkitARM/bin/../lib/gcc/arm-none-eabi/6.3.0/../../../../arm-none-eabi/lib/thumb/libg.a(lib_a-stdio.o) (_lseek_r)
/home/james/devkitPro/devkitARM/bin/../lib/gcc/arm-none-eabi/6.3.0/../../../../arm-none-eabi/lib/thumb/libsysbase.a(read.o)
                              /home/james/devkitPro/devkitARM/bin/../lib/gcc/arm-none-eabi/6.3.0/../../../../arm-none-eabi/lib/thumb/libg.a(lib_a-stdio.o) (_read_r)
/home/james/devkitPro/devkitARM/bin/../lib/gcc/arm-none-eabi/6.3.0/../../../../arm-none-eabi/lib/thumb/libsysbase.a(sbrk.o)
                              /home/james/devkitPro/devkitARM/bin/../lib/gcc/arm-none-eabi/6.3.0/../../../../arm-none-eabi/lib/thumb/libg.a(lib_a-mallocr.o) (_sbrk_r)
/home/james/devkitPro/devkitARM/bin/../lib/gcc/arm-none-eabi/6.3.0/../../../../arm-none-eabi/lib/thumb/libsysbase.a(write.o)
                              /home/james/devkitPro/devkitARM/bin/../lib/gcc/arm-none-eabi/6.3.0/../../../../arm-none-eabi/lib/thumb/libg.a(lib_a-stdio.o) (_write_r)
/home/james/devkitPro/devkitARM/bin/../lib/gcc/arm-none-eabi/6.3.0/../../../../arm-none-eabi/lib/thumb/libsysbase.a(malloc_vars.o)
                              /home/james/devkitPro/devkitARM/bin/../lib/gcc/arm-none-eabi/6.3.0/../../../../arm-none-eabi/lib/thumb/ds_arm9_crt0.o (fake_heap_start)
/home/james/devkitPro/devkitARM/bin/../lib/gcc/arm-none-eabi/6.3.0/../../../../arm-none-eabi/lib/thumb/libsysbase.a(build_argv.o)
                              /home/james/devkitPro/devkitARM/bin/../lib/gcc/arm-none-eabi/6.3.0/../../../../arm-none-eabi/lib/thumb/ds_arm9_crt0.o (build_argv)
/home/james/devkitPro/devkitARM/bin/../lib/gcc/arm-none-eabi/6.3.0/../../../../arm-none-eabi/lib/thumb/libsysbase.a(flock.o)
                              /home/james/devkitPro/devkitARM/bin/../lib/gcc/arm-none-eabi/6.3.0/../../../../arm-none-eabi/lib/thumb/libg.a(lib_a-setvbuf.o) (__flockfile)
/home/james/devkitPro/devkitARM/bin/../lib/gcc/arm-none-eabi/6.3.0/../../../../arm-none-eabi/lib/thumb/libsysbase.a(syscall_support.o)
                              /home/james/devkitPro/devkitARM/bin/../lib/gcc/arm-none-eabi/6.3.0/../../../../arm-none-eabi/lib/thumb/libg.a(lib_a-vfiprintf.o) (__libc_lock_init_recursive)
/home/james/devkitPro/devkitARM/bin/../lib/gcc/arm-none-eabi/6.3.0/../../../../arm-none-eabi/lib/thumb/libsysbase.a(handle_manager.o)
                              /home/james/devkitPro/devkitARM/bin/../lib/gcc/arm-none-eabi/6.3.0/../../../../arm-none-eabi/lib/thumb/libsysbase.a(close.o) (__release_handle)
/home/james/devkitPro/devkitARM/bin/../lib/gcc/arm-none-eabi/6.3.0/../../../../arm-none-eabi/lib/thumb/libsysbase.a(getreent.o)
                              /home/james/devkitPro/libnds/lib/libnds9.a(console.o) (__getreent)
/home/james/devkitPro/devkitARM/bin/../lib/gcc/arm-none-eabi/6.3.0/thumb/libgcc.a(_arm_addsubdf3.o)
                              /home/james/devkitPro/devkitARM/bin/../lib/gcc/arm-none-eabi/6.3.0/../../../../arm-none-eabi/lib/thumb/libg.a(lib_a-svfprintf.o) (__aeabi_dsub)
/home/james/devkitPro/devkitARM/bin/../lib/gcc/arm-none-eabi/6.3.0/thumb/libgcc.a(_arm_muldivdf3.o)
                              /home/james/devkitPro/devkitARM/bin/../lib/gcc/arm-none-eabi/6.3.0/../../../../arm-none-eabi/lib/thumb/libg.a(lib_a-svfprintf.o) (__aeabi_dmul)
/home/james/devkitPro/devkitARM/bin/../lib/gcc/arm-none-eabi/6.3.0/thumb/libgcc.a(_arm_cmpdf2.o)
                              /home/james/devkitPro/devkitARM/bin/../lib/gcc/arm-none-eabi/6.3.0/../../../../arm-none-eabi/lib/thumb/libg.a(lib_a-svfprintf.o) (__aeabi_dcmpeq)
/home/james/devkitPro/devkitARM/bin/../lib/gcc/arm-none-eabi/6.3.0/thumb/libgcc.a(_arm_unorddf2.o)
                              /home/james/devkitPro/devkitARM/bin/../lib/gcc/arm-none-eabi/6.3.0/../../../../arm-none-eabi/lib/thumb/libg.a(lib_a-svfprintf.o) (__aeabi_dcmpun)
/home/james/devkitPro/devkitARM/bin/../lib/gcc/arm-none-eabi/6.3.0/thumb/libgcc.a(_arm_fixdfsi.o)
                              /home/james/devkitPro/devkitARM/bin/../lib/gcc/arm-none-eabi/6.3.0/../../../../arm-none-eabi/lib/thumb/libg.a(lib_a-svfprintf.o) (__aeabi_d2iz)
/home/james/devkitPro/devkitARM/bin/../lib/gcc/arm-none-eabi/6.3.0/thumb/libgcc.a(_arm_fixunsdfsi.o)
                              /home/james/devkitPro/devkitARM/bin/../lib/gcc/arm-none-eabi/6.3.0/../../../../arm-none-eabi/lib/thumb/libg.a(lib_a-strtod.o) (__aeabi_d2uiz)
/home/james/devkitPro/devkitARM/bin/../lib/gcc/arm-none-eabi/6.3.0/thumb/libgcc.a(_arm_truncdfsf2.o)
                              /home/james/devkitPro/devkitARM/bin/../lib/gcc/arm-none-eabi/6.3.0/../../../../arm-none-eabi/lib/thumb/libg.a(lib_a-vfscanf.o) (__aeabi_d2f)
/home/james/devkitPro/devkitARM/bin/../lib/gcc/arm-none-eabi/6.3.0/thumb/libgcc.a(_arm_cmpsf2.o)
                              /home/james/devkitPro/devkitARM/bin/../lib/gcc/arm-none-eabi/6.3.0/../../../../arm-none-eabi/lib/thumb/libg.a(lib_a-strtod.o) (__aeabi_fcmple)
/home/james/devkitPro/devkitARM/bin/../lib/gcc/arm-none-eabi/6.3.0/thumb/libgcc.a(_arm_unordsf2.o)
                              /home/james/devkitPro/devkitARM/bin/../lib/gcc/arm-none-eabi/6.3.0/../../../../arm-none-eabi/lib/thumb/libg.a(lib_a-strtod.o) (__aeabi_fcmpun)
/home/james/devkitPro/devkitARM/bin/../lib/gcc/arm-none-eabi/6.3.0/thumb/libgcc.a(_aeabi_uldivmod.o)
                              /home/james/devkitPro/devkitARM/bin/../lib/gcc/arm-none-eabi/6.3.0/../../../../arm-none-eabi/lib/thumb/libg.a(lib_a-svfprintf.o) (__aeabi_uldivmod)
/home/james/devkitPro/devkitARM/bin/../lib/gcc/arm-none-eabi/6.3.0/thumb/libgcc.a(_muldi3.o)
                              /home/james/devkitPro/devkitARM/bin/../lib/gcc/arm-none-eabi/6.3.0/../../../../arm-none-eabi/lib/thumb/libg.a(lib_a-strtoll.o) (__aeabi_lmul)
/home/james/devkitPro/devkitARM/bin/../lib/gcc/arm-none-eabi/6.3.0/thumb/libgcc.a(_udivmoddi4.o)
                              /home/james/devkitPro/devkitARM/bin/../lib/gcc/arm-none-eabi/6.3.0/thumb/libgcc.a(_aeabi_uldivmod.o) (__udivmoddi4)
/home/james/devkitPro/devkitARM/bin/../lib/gcc/arm-none-eabi/6.3.0/thumb/libgcc.a(_clzdi2.o)
                              /home/james/devkitPro/devkitARM/bin/../lib/gcc/arm-none-eabi/6.3.0/thumb/libgcc.a(_udivmoddi4.o) (__clzdi2)
/home/james/devkitPro/devkitARM/bin/../lib/gcc/arm-none-eabi/6.3.0/thumb/libgcc.a(_clzsi2.o)
                              /home/james/devkitPro/devkitARM/bin/../lib/gcc/arm-none-eabi/6.3.0/thumb/libgcc.a(_clzdi2.o) (__clzsi2)

Allocating common symbols
Common symbol       size              file

Wifi_Data_Struct    0x9f44            /home/james/devkitPro/libnds/lib/libdswifi9.a(wifi_arm9.o)
dnsrecord_return    0x524             /home/james/devkitPro/libnds/lib/libdswifi9.a(sgIP_DNS.o)
tcprecords          0x4               /home/james/devkitPro/libnds/lib/libdswifi9.a(sgIP_TCP.o)
ProtocolInterfaces  0x8               /home/james/devkitPro/libnds/lib/libdswifi9.a(sgIP_Hub.o)
currentCopy         0x5c              /home/james/devkitPro/libnds/lib/libnds9.a(console.o)
udpport_counter     0x4               /home/james/devkitPro/libnds/lib/libdswifi9.a(sgIP_UDP.o)
fifo_datamsg_data   0x40              /home/james/devkitPro/libnds/lib/libnds9.a(fifosystem.o)
count_100ms         0x4               /home/james/devkitPro/libnds/lib/libdswifi9.a(sgIP.o)
lasttime            0x4               /home/james/devkitPro/libnds/lib/libdswifi9.a(sgIP_TCP.o)
touch               0xc               template.o
__dsimode           0x1               /home/james/devkitPro/libnds/lib/libnds9.a(initSystem.o)
dhcp_rcvd_dns       0xc               /home/james/devkitPro/libnds/lib/libdswifi9.a(sgIP_DHCP.o)
bgState             0x140             /home/james/devkitPro/libnds/lib/libnds9.a(background.o)
time_count          0x4               /home/james/devkitPro/libnds/lib/libdswifi9.a(sgIP_DNS.o)
dhcp_rcvd_snmask    0x4               /home/james/devkitPro/libnds/lib/libdswifi9.a(sgIP_DHCP.o)
port_counter        0x4               /home/james/devkitPro/libnds/lib/libdswifi9.a(sgIP_TCP.o)
fifo_buffer         0x800             /home/james/devkitPro/libnds/lib/libnds9.a(fifosystem.o)
NumHWInterfaces     0x4               /home/james/devkitPro/libnds/lib/libdswifi9.a(sgIP_Hub.o)
dhcp_state          0x4               /home/james/devkitPro/libnds/lib/libdswifi9.a(sgIP_DHCP.o)
alias_list          0x14              /home/james/devkitPro/libnds/lib/libdswifi9.a(sgIP_DNS.o)
dhcp_p              0x4               /home/james/devkitPro/libnds/lib/libdswifi9.a(sgIP_DHCP.o)
dhcp_optionptr      0x4               /home/james/devkitPro/libnds/lib/libdswifi9.a(sgIP_DHCP.o)
socketlist          0x100             /home/james/devkitPro/libnds/lib/libdswifi9.a(sgIP_sockets.o)
keyBuffer           0x100             /home/james/devkitPro/libnds/lib/libnds9.a(keyboard.o)
bgIsTextLut         0x8               /home/james/devkitPro/libnds/lib/libnds9.a(background.o)
querydata           0x200             /home/james/devkitPro/libnds/lib/libdswifi9.a(sgIP_DNS.o)
bottomScreen        0x5c              template.o
responsedata        0x200             /home/james/devkitPro/libnds/lib/libdswifi9.a(sgIP_DNS.o)
dhcp_int            0x4               /home/james/devkitPro/libnds/lib/libdswifi9.a(sgIP_DHCP.o)
fifo_value32_func   0x40              /home/james/devkitPro/libnds/lib/libnds9.a(fifosystem.o)
fifo_address_func   0x40              /home/james/devkitPro/libnds/lib/libnds9.a(fifosystem.o)
ap                  0x4               template.o
fd                  0x4               template.o
dnsrecords          0x5240            /home/james/devkitPro/libnds/lib/libdswifi9.a(sgIP_DNS.o)
wifi_hw             0x4               /home/james/devkitPro/libnds/lib/libdswifi9.a(wifi_arm9.o)
dhcp_rcvd_ip        0x4               /home/james/devkitPro/libnds/lib/libdswifi9.a(sgIP_DHCP.o)
servaddr            0x10              template.o
dhcp_hostname       0x40              /home/james/devkitPro/libnds/lib/libdswifi9.a(sgIP_DHCP.o)
dhcp_serverip       0x4               /home/james/devkitPro/libnds/lib/libdswifi9.a(sgIP_DHCP.o)
HWInterfaces        0x30              /home/james/devkitPro/libnds/lib/libdswifi9.a(sgIP_Hub.o)
ipaddr_ip           0x4               /home/james/devkitPro/libnds/lib/libdswifi9.a(sgIP_DNS.o)
wHeapsize           0x4               /home/james/devkitPro/libnds/lib/libdswifi9.a(wifi_arm9.o)
fifo_value32_data   0x40              /home/james/devkitPro/libnds/lib/libnds9.a(fifosystem.o)
fifo_value32_queue  0x40              /home/james/devkitPro/libnds/lib/libnds9.a(fifosystem.o)
fifo_data_queue     0x40              /home/james/devkitPro/libnds/lib/libnds9.a(fifosystem.o)
count_1000ms        0x4               /home/james/devkitPro/libnds/lib/libdswifi9.a(sgIP.o)
dhcp_tid            0x4               /home/james/devkitPro/libnds/lib/libdswifi9.a(sgIP_DHCP.o)
sgIP_timems         0x4               /home/james/devkitPro/libnds/lib/libdswifi9.a(sgIP.o)
ArpRecords          0x400             /home/james/devkitPro/libnds/lib/libdswifi9.a(sgIP_ARP.o)
myaddr              0x10              template.o
query_time_start    0x4               /home/james/devkitPro/libnds/lib/libdswifi9.a(sgIP_DNS.o)
dhcp_requestDNS     0x4               /home/james/devkitPro/libnds/lib/libdswifi9.a(sgIP_DHCP.o)
dhcp_socket         0x4               /home/james/devkitPro/libnds/lib/libdswifi9.a(sgIP_DHCP.o)
wHeapFirst          0x4               /home/james/devkitPro/libnds/lib/libdswifi9.a(wifi_arm9.o)
udprecords          0x4               /home/james/devkitPro/libnds/lib/libdswifi9.a(sgIP_UDP.o)
wifi_connect_point  0x58              /home/james/devkitPro/libnds/lib/libdswifi9.a(wifi_arm9.o)
numsynlist          0x4               /home/james/devkitPro/libnds/lib/libdswifi9.a(sgIP_TCP.o)
addr_list           0x14              /home/james/devkitPro/libnds/lib/libdswifi9.a(sgIP_DNS.o)
topScreen           0x5c              template.o
punixTime           0x4               /home/james/devkitPro/libnds/lib/libnds9.a(timeSupport.o)
synlist             0x800             /home/james/devkitPro/libnds/lib/libdswifi9.a(sgIP_TCP.o)
fifo_address_data   0x40              /home/james/devkitPro/libnds/lib/libnds9.a(fifosystem.o)
ipaddr_alias        0x100             /home/james/devkitPro/libnds/lib/libdswifi9.a(sgIP_DNS.o)
dhcp_timestart      0x4               /home/james/devkitPro/libnds/lib/libdswifi9.a(sgIP_DHCP.o)
dhcp_status         0x4               /home/james/devkitPro/libnds/lib/libdswifi9.a(sgIP_DHCP.o)
dns_sock            0x4               /home/james/devkitPro/libnds/lib/libdswifi9.a(sgIP_DNS.o)
wHeapStart          0x4               /home/james/devkitPro/libnds/lib/libdswifi9.a(wifi_arm9.o)
last_id             0x4               /home/james/devkitPro/libnds/lib/libdswifi9.a(sgIP_DNS.o)
sgIP_errno          0x4               /home/james/devkitPro/libnds/lib/libdswifi9.a(sgIP.o)
dnsrecord_hostent   0x14              /home/james/devkitPro/libnds/lib/libdswifi9.a(sgIP_DNS.o)
dhcp_rcvd_gateway   0x4               /home/james/devkitPro/libnds/lib/libdswifi9.a(sgIP_DHCP.o)
NumProtocolInterfaces
                    0x4               /home/james/devkitPro/libnds/lib/libdswifi9.a(sgIP_Hub.o)
fifo_datamsg_func   0x40              /home/james/devkitPro/libnds/lib/libnds9.a(fifosystem.o)
idnum_count         0x4               /home/james/devkitPro/libnds/lib/libdswifi9.a(sgIP_IP.o)
dhcp_timelastaction
                    0x4               /home/james/devkitPro/libnds/lib/libdswifi9.a(sgIP_DHCP.o)
fifo_address_queue  0x40              /home/james/devkitPro/libnds/lib/libnds9.a(fifosystem.o)

Discarded input sections

 .text          0x0000000000000000        0x0 /home/james/devkitPro/devkitARM/bin/../lib/gcc/arm-none-eabi/6.3.0/../../../../arm-none-eabi/lib/thumb/ds_arm9_crt0.o
 .data          0x0000000000000000        0x0 /home/james/devkitPro/devkitARM/bin/../lib/gcc/arm-none-eabi/6.3.0/../../../../arm-none-eabi/lib/thumb/ds_arm9_crt0.o
 .bss           0x0000000000000000        0x0 /home/james/devkitPro/devkitARM/bin/../lib/gcc/arm-none-eabi/6.3.0/../../../../arm-none-eabi/lib/thumb/ds_arm9_crt0.o
 .text          0x0000000000000000        0x0 /home/james/devkitPro/devkitARM/bin/../lib/gcc/arm-none-eabi/6.3.0/thumb/crti.o
 .data          0x0000000000000000        0x0 /home/james/devkitPro/devkitARM/bin/../lib/gcc/arm-none-eabi/6.3.0/thumb/crti.o
 .bss           0x0000000000000000        0x0 /home/james/devkitPro/devkitARM/bin/../lib/gcc/arm-none-eabi/6.3.0/thumb/crti.o
 .text          0x0000000000000000        0x0 /home/james/devkitPro/devkitARM/bin/../lib/gcc/arm-none-eabi/6.3.0/thumb/crtbegin.o
 .data          0x0000000000000000        0x0 /home/james/devkitPro/devkitARM/bin/../lib/gcc/arm-none-eabi/6.3.0/thumb/crtbegin.o
 .bss           0x0000000000000000        0x0 /home/james/devkitPro/devkitARM/bin/../lib/gcc/arm-none-eabi/6.3.0/thumb/crtbegin.o
 .data.__dso_handle
                0x0000000000000000        0x4 /home/james/devkitPro/devkitARM/bin/../lib/gcc/arm-none-eabi/6.3.0/thumb/crtbegin.o
 .text          0x0000000000000000        0x0 /home/james/devkitPro/libnds/lib/libdswifi9.a(wifi_arm9.o)
 .data          0x0000000000000000        0x0 /home/james/devkitPro/libnds/lib/libdswifi9.a(wifi_arm9.o)
 .bss           0x0000000000000000        0x0 /home/james/devkitPro/libnds/lib/libdswifi9.a(wifi_arm9.o)
 .text.ethhdr_print
                0x0000000000000000        0x2 /home/james/devkitPro/libnds/lib/libdswifi9.a(wifi_arm9.o)
 .text.Wifi_CopyMacAddr
                0x0000000000000000        0xe /home/james/devkitPro/libnds/lib/libdswifi9.a(wifi_arm9.o)
 .text.Wifi_RawTxFrame
                0x0000000000000000       0xc4 /home/james/devkitPro/libnds/lib/libdswifi9.a(wifi_arm9.o)
 .text.Wifi_RawSetPacketHandler
                0x0000000000000000        0xc /home/james/devkitPro/libnds/lib/libdswifi9.a(wifi_arm9.o)
 .text.Wifi_SetSyncHandler
                0x0000000000000000        0xc /home/james/devkitPro/libnds/lib/libdswifi9.a(wifi_arm9.o)
 .text.Wifi_DisableWifi
                0x0000000000000000       0x18 /home/james/devkitPro/libnds/lib/libdswifi9.a(wifi_arm9.o)
 .text.Wifi_EnableWifi
                0x0000000000000000       0x14 /home/james/devkitPro/libnds/lib/libdswifi9.a(wifi_arm9.o)
 .text.Wifi_SetPromiscuousMode
                0x0000000000000000       0x20 /home/james/devkitPro/libnds/lib/libdswifi9.a(wifi_arm9.o)
 .text.Wifi_SetChannel
                0x0000000000000000       0x24 /home/james/devkitPro/libnds/lib/libdswifi9.a(wifi_arm9.o)
 .text.Wifi_GetIPInfo
                0x0000000000000000       0x38 /home/james/devkitPro/libnds/lib/libdswifi9.a(wifi_arm9.o)
 .text.Wifi_SetDHCP
                0x0000000000000000        0x2 /home/james/devkitPro/libnds/lib/libdswifi9.a(wifi_arm9.o)
 .text.Wifi_GetData
                0x0000000000000000       0x60 /home/james/devkitPro/libnds/lib/libdswifi9.a(wifi_arm9.o)
 .text.Wifi_GetStats
                0x0000000000000000       0x20 /home/james/devkitPro/libnds/lib/libdswifi9.a(wifi_arm9.o)
 .text          0x0000000000000000        0x0 /home/james/devkitPro/libnds/lib/libdswifi9.a(sgIP_sockets.o)
 .data          0x0000000000000000        0x0 /home/james/devkitPro/libnds/lib/libdswifi9.a(sgIP_sockets.o)
 .bss           0x0000000000000000        0x0 /home/james/devkitPro/libnds/lib/libdswifi9.a(sgIP_sockets.o)
 .text.spawn_socket
                0x0000000000000000       0x54 /home/james/devkitPro/libnds/lib/libdswifi9.a(sgIP_sockets.o)
 .text.kill_socket
                0x0000000000000000       0x34 /home/james/devkitPro/libnds/lib/libdswifi9.a(sgIP_sockets.o)
 .text.connect  0x0000000000000000       0xb4 /home/james/devkitPro/libnds/lib/libdswifi9.a(sgIP_sockets.o)
 .text.send     0x0000000000000000       0x94 /home/james/devkitPro/libnds/lib/libdswifi9.a(sgIP_sockets.o)
 .text.recv     0x0000000000000000       0x94 /home/james/devkitPro/libnds/lib/libdswifi9.a(sgIP_sockets.o)
 .text.listen   0x0000000000000000       0x60 /home/james/devkitPro/libnds/lib/libdswifi9.a(sgIP_sockets.o)
 .text.accept   0x0000000000000000       0xe0 /home/james/devkitPro/libnds/lib/libdswifi9.a(sgIP_sockets.o)
 .text.setsockopt
                0x0000000000000000        0x4 /home/james/devkitPro/libnds/lib/libdswifi9.a(sgIP_sockets.o)
 .text.getsockopt
                0x0000000000000000        0x4 /home/james/devkitPro/libnds/lib/libdswifi9.a(sgIP_sockets.o)
 .text.getpeername
                0x0000000000000000       0x8c /home/james/devkitPro/libnds/lib/libdswifi9.a(sgIP_sockets.o)
 .text.getsockname
                0x0000000000000000       0x94 /home/james/devkitPro/libnds/lib/libdswifi9.a(sgIP_sockets.o)
 .text.gethostbyname
                0x0000000000000000        0x8 /home/james/devkitPro/libnds/lib/libdswifi9.a(sgIP_sockets.o)
 .text.select   0x0000000000000000      0x23c /home/james/devkitPro/libnds/lib/libdswifi9.a(sgIP_sockets.o)
 .text          0x0000000000000000        0x0 /home/james/devkitPro/libnds/lib/libdswifi9.a(sgIP_memblock.o)
 .data          0x0000000000000000        0x0 /home/james/devkitPro/libnds/lib/libdswifi9.a(sgIP_memblock.o)
 .bss           0x0000000000000000        0x0 /home/james/devkitPro/libnds/lib/libdswifi9.a(sgIP_memblock.o)
 .text.sgIP_memblock_CopyBlock
                0x0000000000000000        0x4 /home/james/devkitPro/libnds/lib/libdswifi9.a(sgIP_memblock.o)
 .text          0x0000000000000000        0x0 /home/james/devkitPro/libnds/lib/libdswifi9.a(sgIP_TCP.o)
 .data          0x0000000000000000        0x0 /home/james/devkitPro/libnds/lib/libdswifi9.a(sgIP_TCP.o)
 .bss           0x0000000000000000        0x0 /home/james/devkitPro/libnds/lib/libdswifi9.a(sgIP_TCP.o)
 .text.sgIP_TCP_GetUnusedOutgoingPort
                0x0000000000000000       0x60 /home/james/devkitPro/libnds/lib/libdswifi9.a(sgIP_TCP.o)
 .text.sgIP_TCP_Listen
                0x0000000000000000       0x54 /home/james/devkitPro/libnds/lib/libdswifi9.a(sgIP_TCP.o)
 .text.sgIP_TCP_Accept
                0x0000000000000000       0x70 /home/james/devkitPro/libnds/lib/libdswifi9.a(sgIP_TCP.o)
 .text.sgIP_TCP_Connect
                0x0000000000000000       0x7c /home/james/devkitPro/libnds/lib/libdswifi9.a(sgIP_TCP.o)
 .text.sgIP_TCP_Send
                0x0000000000000000       0xf8 /home/james/devkitPro/libnds/lib/libdswifi9.a(sgIP_TCP.o)
 .text.sgIP_TCP_Recv
                0x0000000000000000       0xd8 /home/james/devkitPro/libnds/lib/libdswifi9.a(sgIP_TCP.o)
 .text          0x0000000000000000        0x0 /home/james/devkitPro/libnds/lib/libdswifi9.a(sgIP_Hub.o)
 .data          0x0000000000000000        0x0 /home/james/devkitPro/libnds/lib/libdswifi9.a(sgIP_Hub.o)
 .bss           0x0000000000000000        0x0 /home/james/devkitPro/libnds/lib/libdswifi9.a(sgIP_Hub.o)
 .text.sgIP_Hub_RemoveProtocolInterface
                0x0000000000000000       0x1c /home/james/devkitPro/libnds/lib/libdswifi9.a(sgIP_Hub.o)
 .text.sgIP_Hub_RemoveHardwareInterface
                0x0000000000000000       0x1c /home/james/devkitPro/libnds/lib/libdswifi9.a(sgIP_Hub.o)
 .text.sgIP_Hub_GetDefaultInterface
                0x0000000000000000       0x14 /home/james/devkitPro/libnds/lib/libdswifi9.a(sgIP_Hub.o)
 .text          0x0000000000000000        0x0 /home/james/devkitPro/libnds/lib/libdswifi9.a(sgIP_DNS.o)
 .data          0x0000000000000000        0x0 /home/james/devkitPro/libnds/lib/libdswifi9.a(sgIP_DNS.o)
 .bss           0x0000000000000000        0x0 /home/james/devkitPro/libnds/lib/libdswifi9.a(sgIP_DNS.o)
 .text.sgIP_ntoa
                0x0000000000000000       0x6c /home/james/devkitPro/libnds/lib/libdswifi9.a(sgIP_DNS.o)
 .text.sgIP_DNS_FindDNSRecord
                0x0000000000000000       0xd4 /home/james/devkitPro/libnds/lib/libdswifi9.a(sgIP_DNS.o)
 .text.sgIP_DNS_GenerateHostent
                0x0000000000000000       0xac /home/james/devkitPro/libnds/lib/libdswifi9.a(sgIP_DNS.o)
 .text.sgIP_DNS_CopyAliasAt
                0x0000000000000000       0x60 /home/james/devkitPro/libnds/lib/libdswifi9.a(sgIP_DNS.o)
 .text.sgIP_DNS_gethostbyname
                0x0000000000000000      0x3c0 /home/james/devkitPro/libnds/lib/libdswifi9.a(sgIP_DNS.o)
 .text.inet_addr
                0x0000000000000000       0x16 /home/james/devkitPro/libnds/lib/libdswifi9.a(sgIP_DNS.o)
 .text.inet_ntoa
                0x0000000000000000       0x10 /home/james/devkitPro/libnds/lib/libdswifi9.a(sgIP_DNS.o)
 .data          0x0000000000000000        0x0 /home/james/devkitPro/libnds/lib/libdswifi9.a(spinlock.o)
 .bss           0x0000000000000000        0x0 /home/james/devkitPro/libnds/lib/libdswifi9.a(spinlock.o)
 .text          0x0000000000000000        0x0 /home/james/devkitPro/libnds/lib/libdswifi9.a(sgIP_DHCP.o)
 .data          0x0000000000000000        0x0 /home/james/devkitPro/libnds/lib/libdswifi9.a(sgIP_DHCP.o)
 .bss           0x0000000000000000        0x0 /home/james/devkitPro/libnds/lib/libdswifi9.a(sgIP_DHCP.o)
 .text.sgIP_DHCP_SetHostName
                0x0000000000000000       0x1c /home/james/devkitPro/libnds/lib/libdswifi9.a(sgIP_DHCP.o)
 .text.sgIP_DHCP_IsDhcpIp
                0x0000000000000000       0x10 /home/james/devkitPro/libnds/lib/libdswifi9.a(sgIP_DHCP.o)
 .text.sgIP_DHCP_Release
                0x0000000000000000       0x34 /home/james/devkitPro/libnds/lib/libdswifi9.a(sgIP_DHCP.o)
 .text.sethostname
                0x0000000000000000       0x68 /home/james/devkitPro/libnds/lib/libdswifi9.a(sgIP_DHCP.o)
 .text          0x0000000000000000        0x0 /home/james/devkitPro/libnds/lib/libdswifi9.a(sgIP_UDP.o)
 .data          0x0000000000000000        0x0 /home/james/devkitPro/libnds/lib/libdswifi9.a(sgIP_UDP.o)
 .bss           0x0000000000000000        0x0 /home/james/devkitPro/libnds/lib/libdswifi9.a(sgIP_UDP.o)
 .text          0x0000000000000000        0x0 /home/james/devkitPro/libnds/lib/libdswifi9.a(sgIP.o)
 .data          0x0000000000000000        0x0 /home/james/devkitPro/libnds/lib/libdswifi9.a(sgIP.o)
 .bss           0x0000000000000000        0x0 /home/james/devkitPro/libnds/lib/libdswifi9.a(sgIP.o)
 .text          0x0000000000000000        0x0 /home/james/devkitPro/libnds/lib/libdswifi9.a(sgIP_ARP.o)
 .data          0x0000000000000000        0x0 /home/james/devkitPro/libnds/lib/libdswifi9.a(sgIP_ARP.o)
 .bss           0x0000000000000000        0x0 /home/james/devkitPro/libnds/lib/libdswifi9.a(sgIP_ARP.o)
 .text.sgIP_is_broadcast_address
                0x0000000000000000        0xc /home/james/devkitPro/libnds/lib/libdswifi9.a(sgIP_ARP.o)
 .text.sgIP_ARP_Check_isok
                0x0000000000000000        0x4 /home/james/devkitPro/libnds/lib/libdswifi9.a(sgIP_ARP.o)
 .text.sgIP_ARP_ProcessIPFrame
                0x0000000000000000        0x4 /home/james/devkitPro/libnds/lib/libdswifi9.a(sgIP_ARP.o)
 .text          0x0000000000000000        0x0 /home/james/devkitPro/libnds/lib/libdswifi9.a(sgIP_IP.o)
 .data          0x0000000000000000        0x0 /home/james/devkitPro/libnds/lib/libdswifi9.a(sgIP_IP.o)
 .bss           0x0000000000000000        0x0 /home/james/devkitPro/libnds/lib/libdswifi9.a(sgIP_IP.o)
 .text          0x0000000000000000        0x0 /home/james/devkitPro/libnds/lib/libdswifi9.a(sgIP_ICMP.o)
 .data          0x0000000000000000        0x0 /home/james/devkitPro/libnds/lib/libdswifi9.a(sgIP_ICMP.o)
 .bss           0x0000000000000000        0x0 /home/james/devkitPro/libnds/lib/libdswifi9.a(sgIP_ICMP.o)
 .text.sgIP_ICMP_Init
                0x0000000000000000        0x2 /home/james/devkitPro/libnds/lib/libdswifi9.a(sgIP_ICMP.o)
 .text          0x0000000000000000        0x0 /home/james/devkitPro/libnds/lib/libnds9.a(console.o)
 .data          0x0000000000000000        0x0 /home/james/devkitPro/libnds/lib/libnds9.a(console.o)
 .bss           0x0000000000000000        0x0 /home/james/devkitPro/libnds/lib/libnds9.a(console.o)
 .text.nocash_write
                0x0000000000000000       0x10 /home/james/devkitPro/libnds/lib/libnds9.a(console.o)
 .text.consoleGetDefault
                0x0000000000000000        0x8 /home/james/devkitPro/libnds/lib/libnds9.a(console.o)
 .text.consoleDebugInit
                0x0000000000000000       0x50 /home/james/devkitPro/libnds/lib/libnds9.a(console.o)
 .text.consoleSetFont
                0x0000000000000000       0x20 /home/james/devkitPro/libnds/lib/libnds9.a(console.o)
 .text.consoleDemoInit
                0x0000000000000000       0x40 /home/james/devkitPro/libnds/lib/libnds9.a(console.o)
 .text.consoleSetWindow
                0x0000000000000000       0x20 /home/james/devkitPro/libnds/lib/libnds9.a(console.o)
 .rodata.dotab_nocash
                0x0000000000000000       0x68 /home/james/devkitPro/libnds/lib/libnds9.a(console.o)
 .rodata.dotab_null
                0x0000000000000000       0x68 /home/james/devkitPro/libnds/lib/libnds9.a(console.o)
 .text          0x0000000000000000        0x0 /home/james/devkitPro/libnds/lib/libnds9.a(touch.o)
 .data          0x0000000000000000        0x0 /home/james/devkitPro/libnds/lib/libnds9.a(touch.o)
 .bss           0x0000000000000000        0x0 /home/james/devkitPro/libnds/lib/libnds9.a(touch.o)
 .text.touchReadXY
                0x0000000000000000       0x24 /home/james/devkitPro/libnds/lib/libnds9.a(touch.o)
 .text          0x0000000000000000        0x0 /home/james/devkitPro/libnds/lib/libnds9.a(background.o)
 .data          0x0000000000000000        0x0 /home/james/devkitPro/libnds/lib/libnds9.a(background.o)
 .bss           0x0000000000000000        0x0 /home/james/devkitPro/libnds/lib/libnds9.a(background.o)
 .text.bgIsText
                0x0000000000000000        0xc /home/james/devkitPro/libnds/lib/libnds9.a(background.o)
 .text.checkIfText
                0x0000000000000000       0x28 /home/james/devkitPro/libnds/lib/libnds9.a(background.o)
 .text          0x0000000000000000        0x0 /home/james/devkitPro/libnds/lib/libnds9.a(trig.o)
 .data          0x0000000000000000        0x0 /home/james/devkitPro/libnds/lib/libnds9.a(trig.o)
 .bss           0x0000000000000000        0x0 /home/james/devkitPro/libnds/lib/libnds9.a(trig.o)
 .text.asinComp
                0x0000000000000000       0x24 /home/james/devkitPro/libnds/lib/libnds9.a(trig.o)
 .text.sinLutLookup
                0x0000000000000000       0x38 /home/james/devkitPro/libnds/lib/libnds9.a(trig.o)
 .text.tanLutLookup
                0x0000000000000000       0x34 /home/james/devkitPro/libnds/lib/libnds9.a(trig.o)
 .text.tanLerp  0x0000000000000000       0xa0 /home/james/devkitPro/libnds/lib/libnds9.a(trig.o)
 .text.asinLerp
                0x0000000000000000       0x7c /home/james/devkitPro/libnds/lib/libnds9.a(trig.o)
 .text.acosLerp
                0x0000000000000000       0x14 /home/james/devkitPro/libnds/lib/libnds9.a(trig.o)
 .text.atanComp
                0x0000000000000000       0x24 /home/james/devkitPro/libnds/lib/libnds9.a(trig.o)
 .rodata.TAN_LUT
                0x0000000000000000      0x204 /home/james/devkitPro/libnds/lib/libnds9.a(trig.o)
 .text          0x0000000000000000        0x0 /home/james/devkitPro/libnds/lib/libnds9.a(keyboard.o)
 .data          0x0000000000000000        0x0 /home/james/devkitPro/libnds/lib/libnds9.a(keyboard.o)
 .bss           0x0000000000000000        0x0 /home/james/devkitPro/libnds/lib/libnds9.a(keyboard.o)
 .text.keyboardGetDefault
                0x0000000000000000        0x8 /home/james/devkitPro/libnds/lib/libnds9.a(keyboard.o)
 .text.keyboardGetChar
                0x0000000000000000       0x30 /home/james/devkitPro/libnds/lib/libnds9.a(keyboard.o)
 .text.keyboardGetString
                0x0000000000000000       0x2c /home/james/devkitPro/libnds/lib/libnds9.a(keyboard.o)
 .text          0x0000000000000000        0x0 /home/james/devkitPro/libnds/lib/libnds9.a(keys.o)
 .data          0x0000000000000000        0x0 /home/james/devkitPro/libnds/lib/libnds9.a(keys.o)
 .bss           0x0000000000000000        0x0 /home/james/devkitPro/libnds/lib/libnds9.a(keys.o)
 .text.keysDownRepeat
                0x0000000000000000       0x10 /home/james/devkitPro/libnds/lib/libnds9.a(keys.o)
 .text.keysSetRepeat
                0x0000000000000000       0x24 /home/james/devkitPro/libnds/lib/libnds9.a(keys.o)
 .text.keysUp   0x0000000000000000       0x18 /home/james/devkitPro/libnds/lib/libnds9.a(keys.o)
 .text          0x0000000000000000        0x0 /home/james/devkitPro/libnds/lib/libnds9.a(initSystem.o)
 .data          0x0000000000000000        0x0 /home/james/devkitPro/libnds/lib/libnds9.a(initSystem.o)
 .bss           0x0000000000000000        0x0 /home/james/devkitPro/libnds/lib/libnds9.a(initSystem.o)
 .text          0x0000000000000000        0x0 /home/james/devkitPro/libnds/lib/libnds9.a(timeSupport.o)
 .data          0x0000000000000000        0x0 /home/james/devkitPro/libnds/lib/libnds9.a(timeSupport.o)
 .bss           0x0000000000000000        0x0 /home/james/devkitPro/libnds/lib/libnds9.a(timeSupport.o)
 .text          0x0000000000000000        0x0 /home/james/devkitPro/libnds/lib/libnds9.a(securearea.o)
 .data          0x0000000000000000        0x0 /home/james/devkitPro/libnds/lib/libnds9.a(securearea.o)
 .bss           0x0000000000000000        0x0 /home/james/devkitPro/libnds/lib/libnds9.a(securearea.o)
 .text          0x0000000000000000        0x0 /home/james/devkitPro/libnds/lib/libnds9.a(interrupts.o)
 .data          0x0000000000000000        0x0 /home/james/devkitPro/libnds/lib/libnds9.a(interrupts.o)
 .bss           0x0000000000000000        0x0 /home/james/devkitPro/libnds/lib/libnds9.a(interrupts.o)
 .text.irqInitHandler
                0x0000000000000000       0x28 /home/james/devkitPro/libnds/lib/libnds9.a(interrupts.o)
 .text.irqClear
                0x0000000000000000       0x38 /home/james/devkitPro/libnds/lib/libnds9.a(interrupts.o)
 .text          0x0000000000000000        0x0 /home/james/devkitPro/libnds/lib/libnds9.a(libnds_exit.arm.o)
 .data          0x0000000000000000        0x0 /home/james/devkitPro/libnds/lib/libnds9.a(libnds_exit.arm.o)
 .bss           0x0000000000000000        0x0 /home/james/devkitPro/libnds/lib/libnds9.a(libnds_exit.arm.o)
 .text          0x0000000000000000        0x0 /home/james/devkitPro/libnds/lib/libnds9.a(fifosystem.o)
 .data          0x0000000000000000        0x0 /home/james/devkitPro/libnds/lib/libnds9.a(fifosystem.o)
 .bss           0x0000000000000000        0x0 /home/james/devkitPro/libnds/lib/libnds9.a(fifosystem.o)
 .text.fifoSendDatamsg
                0x0000000000000000       0x90 /home/james/devkitPro/libnds/lib/libnds9.a(fifosystem.o)
 .text.fifoGetAddress
                0x0000000000000000       0x70 /home/james/devkitPro/libnds/lib/libnds9.a(fifosystem.o)
 .text.fifoSetAddressHandler
                0x0000000000000000       0x74 /home/james/devkitPro/libnds/lib/libnds9.a(fifosystem.o)
 .text.fifoGetValue32
                0x0000000000000000       0x14 /home/james/devkitPro/libnds/lib/libnds9.a(fifosystem.o)
 .text.fifoCheckAddress
                0x0000000000000000       0x24 /home/james/devkitPro/libnds/lib/libnds9.a(fifosystem.o)
 .text.fifoCheckDatamsg
                0x0000000000000000       0x24 /home/james/devkitPro/libnds/lib/libnds9.a(fifosystem.o)
 .text.fifoCheckDatamsgLength
                0x0000000000000000       0x30 /home/james/devkitPro/libnds/lib/libnds9.a(fifosystem.o)
 .text.fifoCheckValue32
                0x0000000000000000       0x24 /home/james/devkitPro/libnds/lib/libnds9.a(fifosystem.o)
 .text          0x0000000000000000        0x0 /home/james/devkitPro/libnds/lib/libnds9.a(dcache.o)
 .data          0x0000000000000000        0x0 /home/james/devkitPro/libnds/lib/libnds9.a(dcache.o)
 .bss           0x0000000000000000        0x0 /home/james/devkitPro/libnds/lib/libnds9.a(dcache.o)
 .text.DC_InvalidateAll
                0x0000000000000000        0xc /home/james/devkitPro/libnds/lib/libnds9.a(dcache.o)
 .text.DC_InvalidateRange
                0x0000000000000000       0x2c /home/james/devkitPro/libnds/lib/libnds9.a(dcache.o)
 .text          0x0000000000000000        0x0 /home/james/devkitPro/libnds/lib/libnds9.a(mpu_setup.o)
 .bss           0x0000000000000000        0x0 /home/james/devkitPro/libnds/lib/libnds9.a(mpu_setup.o)
 .text.memCached
                0x0000000000000000       0x20 /home/james/devkitPro/libnds/lib/libnds9.a(mpu_setup.o)
 .text          0x0000000000000000        0x0 /home/james/devkitPro/libnds/lib/libnds9.a(IntrWait.o)
 .data          0x0000000000000000        0x0 /home/james/devkitPro/libnds/lib/libnds9.a(IntrWait.o)
 .bss           0x0000000000000000        0x0 /home/james/devkitPro/libnds/lib/libnds9.a(IntrWait.o)
 .text          0x0000000000000000        0x0 /home/james/devkitPro/libnds/lib/libnds9.a(cpu_clock.o)
 .data          0x0000000000000000        0x0 /home/james/devkitPro/libnds/lib/libnds9.a(cpu_clock.o)
 .bss           0x0000000000000000        0x0 /home/james/devkitPro/libnds/lib/libnds9.a(cpu_clock.o)
 .itcm          0x0000000000000000        0x0 /home/james/devkitPro/libnds/lib/libnds9.a(cpu_clock.o)
 .text          0x0000000000000000        0x0 /home/james/devkitPro/libnds/lib/libnds9.a(interruptDispatcher.o)
 .data          0x0000000000000000        0x0 /home/james/devkitPro/libnds/lib/libnds9.a(interruptDispatcher.o)
 .bss           0x0000000000000000        0x0 /home/james/devkitPro/libnds/lib/libnds9.a(interruptDispatcher.o)
 .text          0x0000000000000000       0xa4 /home/james/devkitPro/libnds/lib/libnds9.a(debugprint.o)
 .data          0x0000000000000000        0x0 /home/james/devkitPro/libnds/lib/libnds9.a(debugprint.o)
 .bss           0x0000000000000000        0x0 /home/james/devkitPro/libnds/lib/libnds9.a(debugprint.o)
 .debug_line    0x0000000000000000       0x9e /home/james/devkitPro/libnds/lib/libnds9.a(debugprint.o)
 .debug_info    0x0000000000000000       0xbe /home/james/devkitPro/libnds/lib/libnds9.a(debugprint.o)
 .debug_abbrev  0x0000000000000000       0x14 /home/james/devkitPro/libnds/lib/libnds9.a(debugprint.o)
 .debug_aranges
                0x0000000000000000       0x20 /home/james/devkitPro/libnds/lib/libnds9.a(debugprint.o)
 .ARM.attributes
                0x0000000000000000       0x1b /home/james/devkitPro/libnds/lib/libnds9.a(debugprint.o)
 .text          0x0000000000000000        0x0 /home/james/devkitPro/libnds/lib/libnds9.a(swiSoftReset.o)
 .data          0x0000000000000000        0x0 /home/james/devkitPro/libnds/lib/libnds9.a(swiSoftReset.o)
 .bss           0x0000000000000000        0x0 /home/james/devkitPro/libnds/lib/libnds9.a(swiSoftReset.o)
 .text          0x0000000000000000        0x0 /home/james/devkitPro/libnds/lib/libnds9.a(default_font.bin.o)
 .data          0x0000000000000000        0x0 /home/james/devkitPro/libnds/lib/libnds9.a(default_font.bin.o)
 .bss           0x0000000000000000        0x0 /home/james/devkitPro/libnds/lib/libnds9.a(default_font.bin.o)
 .text          0x0000000000000000        0x0 /home/james/devkitPro/libnds/lib/libnds9.a(keyboardGfx.o)
 .data          0x0000000000000000        0x0 /home/james/devkitPro/libnds/lib/libnds9.a(keyboardGfx.o)
 .bss           0x0000000000000000        0x0 /home/james/devkitPro/libnds/lib/libnds9.a(keyboardGfx.o)
 .text          0x0000000000000000        0x0 /home/james/devkitPro/libnds/lib/libnds9.a(video.o)
 .data          0x0000000000000000        0x0 /home/james/devkitPro/libnds/lib/libnds9.a(video.o)
 .bss           0x0000000000000000        0x0 /home/james/devkitPro/libnds/lib/libnds9.a(video.o)
 .text.vramSetMainBanks
                0x0000000000000000       0x44 /home/james/devkitPro/libnds/lib/libnds9.a(video.o)
 .text.vramSetPrimaryBanks
                0x0000000000000000        0x8 /home/james/devkitPro/libnds/lib/libnds9.a(video.o)
 .text.vramSetBanks_EFG
                0x0000000000000000       0x38 /home/james/devkitPro/libnds/lib/libnds9.a(video.o)
 .text.vramRestorePrimaryBanks
                0x0000000000000000        0xc /home/james/devkitPro/libnds/lib/libnds9.a(video.o)
 .text.vramRestoreMainBanks
                0x0000000000000000        0xc /home/james/devkitPro/libnds/lib/libnds9.a(video.o)
 .text.vramRestoreBanks_EFG
                0x0000000000000000        0xc /home/james/devkitPro/libnds/lib/libnds9.a(video.o)
 .text.setBrightness
                0x0000000000000000       0x40 /home/james/devkitPro/libnds/lib/libnds9.a(video.o)
 .text          0x0000000000000000        0x0 /home/james/devkitPro/libnds/lib/libnds9.a(system.o)
 .data          0x0000000000000000        0x0 /home/james/devkitPro/libnds/lib/libnds9.a(system.o)
 .bss           0x0000000000000000        0x0 /home/james/devkitPro/libnds/lib/libnds9.a(system.o)
 .text.setSDcallback
                0x0000000000000000        0xc /home/james/devkitPro/libnds/lib/libnds9.a(system.o)
 .text.systemSleep
                0x0000000000000000       0x18 /home/james/devkitPro/libnds/lib/libnds9.a(system.o)
 .text.powerOff
                0x0000000000000000       0x28 /home/james/devkitPro/libnds/lib/libnds9.a(system.o)
 .text.ledBlink
                0x0000000000000000       0x10 /home/james/devkitPro/libnds/lib/libnds9.a(system.o)
 .text.getBatteryLevel
                0x0000000000000000       0x20 /home/james/devkitPro/libnds/lib/libnds9.a(system.o)
 .text          0x0000000000000000        0x0 /home/james/devkitPro/libnds/lib/libnds9.a(decompress.o)
 .data          0x0000000000000000        0x0 /home/james/devkitPro/libnds/lib/libnds9.a(decompress.o)
 .bss           0x0000000000000000        0x0 /home/james/devkitPro/libnds/lib/libnds9.a(decompress.o)
 .text.decompressStream
                0x0000000000000000       0x3c /home/james/devkitPro/libnds/lib/libnds9.a(decompress.o)
 .text          0x0000000000000000        0x0 /home/james/devkitPro/libnds/lib/libnds9.a(syscalls.o)
 .data          0x0000000000000000        0x0 /home/james/devkitPro/libnds/lib/libnds9.a(syscalls.o)
 .bss           0x0000000000000000        0x0 /home/james/devkitPro/libnds/lib/libnds9.a(syscalls.o)
 .text          0x0000000000000000        0x0 /home/james/devkitPro/libnds/lib/libnds9.a(biosCalls.o)
 .data          0x0000000000000000        0x0 /home/james/devkitPro/libnds/lib/libnds9.a(biosCalls.o)
 .bss           0x0000000000000000        0x0 /home/james/devkitPro/libnds/lib/libnds9.a(biosCalls.o)
 .text.swiSleep
                0x0000000000000000        0x4 /home/james/devkitPro/libnds/lib/libnds9.a(biosCalls.o)
 .text.swiChangeSoundBias
                0x0000000000000000        0x4 /home/james/devkitPro/libnds/lib/libnds9.a(biosCalls.o)
 .text.swiDivide
                0x0000000000000000        0x4 /home/james/devkitPro/libnds/lib/libnds9.a(biosCalls.o)
 .text.swiRemainder
                0x0000000000000000        0x8 /home/james/devkitPro/libnds/lib/libnds9.a(biosCalls.o)
 .text.swiDivMod
                0x0000000000000000        0xc /home/james/devkitPro/libnds/lib/libnds9.a(biosCalls.o)
 .text.swiCopy  0x0000000000000000        0x4 /home/james/devkitPro/libnds/lib/libnds9.a(biosCalls.o)
 .text.swiFastCopy
                0x0000000000000000        0x4 /home/james/devkitPro/libnds/lib/libnds9.a(biosCalls.o)
 .text.swiSqrt  0x0000000000000000        0x4 /home/james/devkitPro/libnds/lib/libnds9.a(biosCalls.o)
 .text.swiCRC16
                0x0000000000000000        0x4 /home/james/devkitPro/libnds/lib/libnds9.a(biosCalls.o)
 .text.swiIsDebugger
                0x0000000000000000        0x4 /home/james/devkitPro/libnds/lib/libnds9.a(biosCalls.o)
 .text.swiUnpackBits
                0x0000000000000000        0x4 /home/james/devkitPro/libnds/lib/libnds9.a(biosCalls.o)
 .text.swiWaitForIRQ
                0x0000000000000000        0x4 /home/james/devkitPro/libnds/lib/libnds9.a(biosCalls.o)
 .text.swiDecodeDelta8
                0x0000000000000000        0x4 /home/james/devkitPro/libnds/lib/libnds9.a(biosCalls.o)
 .text.swiDecodeDelta16
                0x0000000000000000        0x4 /home/james/devkitPro/libnds/lib/libnds9.a(biosCalls.o)
 .text.swiSetHaltCR
                0x0000000000000000        0x4 /home/james/devkitPro/libnds/lib/libnds9.a(biosCalls.o)
 .data          0x0000000000000000        0x0 /home/james/devkitPro/devkitARM/bin/../lib/gcc/arm-none-eabi/6.3.0/thumb/libgcc.a(_thumb1_case_uqi.o)
 .bss           0x0000000000000000        0x0 /home/james/devkitPro/devkitARM/bin/../lib/gcc/arm-none-eabi/6.3.0/thumb/libgcc.a(_thumb1_case_uqi.o)
 .data          0x0000000000000000        0x0 /home/james/devkitPro/devkitARM/bin/../lib/gcc/arm-none-eabi/6.3.0/thumb/libgcc.a(_thumb1_case_uhi.o)
 .bss           0x0000000000000000        0x0 /home/james/devkitPro/devkitARM/bin/../lib/gcc/arm-none-eabi/6.3.0/thumb/libgcc.a(_thumb1_case_uhi.o)
 .data          0x0000000000000000        0x0 /home/james/devkitPro/devkitARM/bin/../lib/gcc/arm-none-eabi/6.3.0/thumb/libgcc.a(_udivsi3.o)
 .bss           0x0000000000000000        0x0 /home/james/devkitPro/devkitARM/bin/../lib/gcc/arm-none-eabi/6.3.0/thumb/libgcc.a(_udivsi3.o)
 .data          0x0000000000000000        0x0 /home/james/devkitPro/devkitARM/bin/../lib/gcc/arm-none-eabi/6.3.0/thumb/libgcc.a(_divsi3.o)
 .bss           0x0000000000000000        0x0 /home/james/devkitPro/devkitARM/bin/../lib/gcc/arm-none-eabi/6.3.0/thumb/libgcc.a(_divsi3.o)
 .data          0x0000000000000000        0x0 /home/james/devkitPro/devkitARM/bin/../lib/gcc/arm-none-eabi/6.3.0/thumb/libgcc.a(_dvmd_tls.o)
 .bss           0x0000000000000000        0x0 /home/james/devkitPro/devkitARM/bin/../lib/gcc/arm-none-eabi/6.3.0/thumb/libgcc.a(_dvmd_tls.o)
 .text          0x0000000000000000        0x0 /home/james/devkitPro/devkitARM/bin/../lib/gcc/arm-none-eabi/6.3.0/../../../../arm-none-eabi/lib/thumb/libg.a(lib_a-bsearch.o)
 .data          0x0000000000000000        0x0 /home/james/devkitPro/devkitARM/bin/../lib/gcc/arm-none-eabi/6.3.0/../../../../arm-none-eabi/lib/thumb/libg.a(lib_a-bsearch.o)
 .bss           0x0000000000000000        0x0 /home/james/devkitPro/devkitARM/bin/../lib/gcc/arm-none-eabi/6.3.0/../../../../arm-none-eabi/lib/thumb/libg.a(lib_a-bsearch.o)
 .text.bsearch  0x0000000000000000       0x64 /home/james/devkitPro/devkitARM/bin/../lib/gcc/arm-none-eabi/6.3.0/../../../../arm-none-eabi/lib/thumb/libg.a(lib_a-bsearch.o)
 .comment       0x0000000000000000       0x23 /home/james/devkitPro/devkitARM/bin/../lib/gcc/arm-none-eabi/6.3.0/../../../../arm-none-eabi/lib/thumb/libg.a(lib_a-bsearch.o)
 .ARM.attributes
                0x0000000000000000       0x30 /home/james/devkitPro/devkitARM/bin/../lib/gcc/arm-none-eabi/6.3.0/../../../../arm-none-eabi/lib/thumb/libg.a(lib_a-bsearch.o)
 .text          0x0000000000000000        0x0 /home/james/devkitPro/devkitARM/bin/../lib/gcc/arm-none-eabi/6.3.0/../../../../arm-none-eabi/lib/thumb/libg.a(lib_a-errno.o)
 .data          0x0000000000000000        0x0 /home/james/devkitPro/devkitARM/bin/../lib/gcc/arm-none-eabi/6.3.0/../../../../arm-none-eabi/lib/thumb/libg.a(lib_a-errno.o)
 .bss           0x0000000000000000        0x0 /home/james/devkitPro/devkitARM/bin/../lib/gcc/arm-none-eabi/6.3.0/../../../../arm-none-eabi/lib/thumb/libg.a(lib_a-errno.o)
 .text          0x0000000000000000        0x0 /home/james/devkitPro/devkitARM/bin/../lib/gcc/arm-none-eabi/6.3.0/../../../../arm-none-eabi/lib/thumb/libg.a(lib_a-init.o)
 .data          0x0000000000000000        0x0 /home/james/devkitPro/devkitARM/bin/../lib/gcc/arm-none-eabi/6.3.0/../../../../arm-none-eabi/lib/thumb/libg.a(lib_a-init.o)
 .bss           0x0000000000000000        0x0 /home/james/devkitPro/devkitARM/bin/../lib/gcc/arm-none-eabi/6.3.0/../../../../arm-none-eabi/lib/thumb/libg.a(lib_a-init.o)
 .text          0x0000000000000000        0x0 /home/james/devkitPro/devkitARM/bin/../lib/gcc/arm-none-eabi/6.3.0/../../../../arm-none-eabi/lib/thumb/libg.a(lib_a-iprintf.o)
 .data          0x0000000000000000        0x0 /home/james/devkitPro/devkitARM/bin/../lib/gcc/arm-none-eabi/6.3.0/../../../../arm-none-eabi/lib/thumb/libg.a(lib_a-iprintf.o)
 .bss           0x0000000000000000        0x0 /home/james/devkitPro/devkitARM/bin/../lib/gcc/arm-none-eabi/6.3.0/../../../../arm-none-eabi/lib/thumb/libg.a(lib_a-iprintf.o)
 .text._iprintf_r
                0x0000000000000000       0x1c /home/james/devkitPro/devkitARM/bin/../lib/gcc/arm-none-eabi/6.3.0/../../../../arm-none-eabi/lib/thumb/libg.a(lib_a-iprintf.o)
 .text          0x0000000000000000        0x0 /home/james/devkitPro/devkitARM/bin/../lib/gcc/arm-none-eabi/6.3.0/../../../../arm-none-eabi/lib/thumb/libg.a(lib_a-malloc.o)
 .data          0x0000000000000000        0x0 /home/james/devkitPro/devkitARM/bin/../lib/gcc/arm-none-eabi/6.3.0/../../../../arm-none-eabi/lib/thumb/libg.a(lib_a-malloc.o)
 .bss           0x0000000000000000        0x0 /home/james/devkitPro/devkitARM/bin/../lib/gcc/arm-none-eabi/6.3.0/../../../../arm-none-eabi/lib/thumb/libg.a(lib_a-malloc.o)
 .text          0x0000000000000000        0x0 /home/james/devkitPro/devkitARM/bin/../lib/gcc/arm-none-eabi/6.3.0/../../../../arm-none-eabi/lib/thumb/libg.a(lib_a-mallocr.o)
 .data          0x0000000000000000        0x0 /home/james/devkitPro/devkitARM/bin/../lib/gcc/arm-none-eabi/6.3.0/../../../../arm-none-eabi/lib/thumb/libg.a(lib_a-mallocr.o)
 .bss           0x0000000000000000        0x0 /home/james/devkitPro/devkitARM/bin/../lib/gcc/arm-none-eabi/6.3.0/../../../../arm-none-eabi/lib/thumb/libg.a(lib_a-mallocr.o)
 .text          0x0000000000000000        0x0 /home/james/devkitPro/devkitARM/bin/../lib/gcc/arm-none-eabi/6.3.0/../../../../arm-none-eabi/lib/thumb/libg.a(lib_a-memcpy-stub.o)
 .data          0x0000000000000000        0x0 /home/james/devkitPro/devkitARM/bin/../lib/gcc/arm-none-eabi/6.3.0/../../../../arm-none-eabi/lib/thumb/libg.a(lib_a-memcpy-stub.o)
 .bss           0x0000000000000000        0x0 /home/james/devkitPro/devkitARM/bin/../lib/gcc/arm-none-eabi/6.3.0/../../../../arm-none-eabi/lib/thumb/libg.a(lib_a-memcpy-stub.o)
 .text          0x0000000000000000        0x0 /home/james/devkitPro/devkitARM/bin/../lib/gcc/arm-none-eabi/6.3.0/../../../../arm-none-eabi/lib/thumb/libg.a(lib_a-memset.o)
 .data          0x0000000000000000        0x0 /home/james/devkitPro/devkitARM/bin/../lib/gcc/arm-none-eabi/6.3.0/../../../../arm-none-eabi/lib/thumb/libg.a(lib_a-memset.o)
 .bss           0x0000000000000000        0x0 /home/james/devkitPro/devkitARM/bin/../lib/gcc/arm-none-eabi/6.3.0/../../../../arm-none-eabi/lib/thumb/libg.a(lib_a-memset.o)
 .text          0x0000000000000000        0x0 /home/james/devkitPro/devkitARM/bin/../lib/gcc/arm-none-eabi/6.3.0/../../../../arm-none-eabi/lib/thumb/libg.a(lib_a-mlock.o)
 .data          0x0000000000000000        0x0 /home/james/devkitPro/devkitARM/bin/../lib/gcc/arm-none-eabi/6.3.0/../../../../arm-none-eabi/lib/thumb/libg.a(lib_a-mlock.o)
 .bss           0x0000000000000000        0x0 /home/james/devkitPro/devkitARM/bin/../lib/gcc/arm-none-eabi/6.3.0/../../../../arm-none-eabi/lib/thumb/libg.a(lib_a-mlock.o)
 .text          0x0000000000000000        0x0 /home/james/devkitPro/devkitARM/bin/../lib/gcc/arm-none-eabi/6.3.0/../../../../arm-none-eabi/lib/thumb/libg.a(lib_a-perror.o)
 .data          0x0000000000000000        0x0 /home/james/devkitPro/devkitARM/bin/../lib/gcc/arm-none-eabi/6.3.0/../../../../arm-none-eabi/lib/thumb/libg.a(lib_a-perror.o)
 .bss           0x0000000000000000        0x0 /home/james/devkitPro/devkitARM/bin/../lib/gcc/arm-none-eabi/6.3.0/../../../../arm-none-eabi/lib/thumb/libg.a(lib_a-perror.o)
 .text          0x0000000000000000        0x0 /home/james/devkitPro/devkitARM/bin/../lib/gcc/arm-none-eabi/6.3.0/../../../../arm-none-eabi/lib/thumb/libg.a(lib_a-scanf.o)
 .data          0x0000000000000000        0x0 /home/james/devkitPro/devkitARM/bin/../lib/gcc/arm-none-eabi/6.3.0/../../../../arm-none-eabi/lib/thumb/libg.a(lib_a-scanf.o)
 .bss           0x0000000000000000        0x0 /home/james/devkitPro/devkitARM/bin/../lib/gcc/arm-none-eabi/6.3.0/../../../../arm-none-eabi/lib/thumb/libg.a(lib_a-scanf.o)
 .text._scanf_r
                0x0000000000000000       0x1c /home/james/devkitPro/devkitARM/bin/../lib/gcc/arm-none-eabi/6.3.0/../../../../arm-none-eabi/lib/thumb/libg.a(lib_a-scanf.o)
 .text          0x0000000000000000        0x0 /home/james/devkitPro/devkitARM/bin/../lib/gcc/arm-none-eabi/6.3.0/../../../../arm-none-eabi/lib/thumb/libg.a(lib_a-setvbuf.o)
 .data          0x0000000000000000        0x0 /home/james/devkitPro/devkitARM/bin/../lib/gcc/arm-none-eabi/6.3.0/../../../../arm-none-eabi/lib/thumb/libg.a(lib_a-setvbuf.o)
 .bss           0x0000000000000000        0x0 /home/james/devkitPro/devkitARM/bin/../lib/gcc/arm-none-eabi/6.3.0/../../../../arm-none-eabi/lib/thumb/libg.a(lib_a-setvbuf.o)
 .text          0x0000000000000000        0x0 /home/james/devkitPro/devkitARM/bin/../lib/gcc/arm-none-eabi/6.3.0/../../../../arm-none-eabi/lib/thumb/libg.a(lib_a-siscanf.o)
 .data          0x0000000000000000        0x0 /home/james/devkitPro/devkitARM/bin/../lib/gcc/arm-none-eabi/6.3.0/../../../../arm-none-eabi/lib/thumb/libg.a(lib_a-siscanf.o)
 .bss           0x0000000000000000        0x0 /home/james/devkitPro/devkitARM/bin/../lib/gcc/arm-none-eabi/6.3.0/../../../../arm-none-eabi/lib/thumb/libg.a(lib_a-siscanf.o)
 .text._siscanf_r
                0x0000000000000000       0x4c /home/james/devkitPro/devkitARM/bin/../lib/gcc/arm-none-eabi/6.3.0/../../../../arm-none-eabi/lib/thumb/libg.a(lib_a-siscanf.o)
 .text          0x0000000000000000        0x0 /home/james/devkitPro/devkitARM/bin/../lib/gcc/arm-none-eabi/6.3.0/../../../../arm-none-eabi/lib/thumb/libg.a(lib_a-snprintf.o)
 .data          0x0000000000000000        0x0 /home/james/devkitPro/devkitARM/bin/../lib/gcc/arm-none-eabi/6.3.0/../../../../arm-none-eabi/lib/thumb/libg.a(lib_a-snprintf.o)
 .bss           0x0000000000000000        0x0 /home/james/devkitPro/devkitARM/bin/../lib/gcc/arm-none-eabi/6.3.0/../../../../arm-none-eabi/lib/thumb/libg.a(lib_a-snprintf.o)
 .text._snprintf_r
                0x0000000000000000       0x80 /home/james/devkitPro/devkitARM/bin/../lib/gcc/arm-none-eabi/6.3.0/../../../../arm-none-eabi/lib/thumb/libg.a(lib_a-snprintf.o)
 .text          0x0000000000000000        0x0 /home/james/devkitPro/devkitARM/bin/../lib/gcc/arm-none-eabi/6.3.0/../../../../arm-none-eabi/lib/thumb/libg.a(lib_a-stdio.o)
 .data          0x0000000000000000        0x0 /home/james/devkitPro/devkitARM/bin/../lib/gcc/arm-none-eabi/6.3.0/../../../../arm-none-eabi/lib/thumb/libg.a(lib_a-stdio.o)
 .bss           0x0000000000000000        0x0 /home/james/devkitPro/devkitARM/bin/../lib/gcc/arm-none-eabi/6.3.0/../../../../arm-none-eabi/lib/thumb/libg.a(lib_a-stdio.o)
 .text          0x0000000000000000        0x0 /home/james/devkitPro/devkitARM/bin/../lib/gcc/arm-none-eabi/6.3.0/../../../../arm-none-eabi/lib/thumb/libg.a(lib_a-strcpy.o)
 .data          0x0000000000000000        0x0 /home/james/devkitPro/devkitARM/bin/../lib/gcc/arm-none-eabi/6.3.0/../../../../arm-none-eabi/lib/thumb/libg.a(lib_a-strcpy.o)
 .bss           0x0000000000000000        0x0 /home/james/devkitPro/devkitARM/bin/../lib/gcc/arm-none-eabi/6.3.0/../../../../arm-none-eabi/lib/thumb/libg.a(lib_a-strcpy.o)
 .text          0x0000000000000000        0x0 /home/james/devkitPro/devkitARM/bin/../lib/gcc/arm-none-eabi/6.3.0/../../../../arm-none-eabi/lib/thumb/libg.a(lib_a-strerror.o)
 .data          0x0000000000000000        0x0 /home/james/devkitPro/devkitARM/bin/../lib/gcc/arm-none-eabi/6.3.0/../../../../arm-none-eabi/lib/thumb/libg.a(lib_a-strerror.o)
 .bss           0x0000000000000000        0x0 /home/james/devkitPro/devkitARM/bin/../lib/gcc/arm-none-eabi/6.3.0/../../../../arm-none-eabi/lib/thumb/libg.a(lib_a-strerror.o)
 .text.strerror
                0x0000000000000000       0x18 /home/james/devkitPro/devkitARM/bin/../lib/gcc/arm-none-eabi/6.3.0/../../../../arm-none-eabi/lib/thumb/libg.a(lib_a-strerror.o)
 .text.strerror_l
                0x0000000000000000       0x18 /home/james/devkitPro/devkitARM/bin/../lib/gcc/arm-none-eabi/6.3.0/../../../../arm-none-eabi/lib/thumb/libg.a(lib_a-strerror.o)
 .text          0x0000000000000000        0x0 /home/james/devkitPro/devkitARM/bin/../lib/gcc/arm-none-eabi/6.3.0/../../../../arm-none-eabi/lib/thumb/libg.a(lib_a-strlen-stub.o)
 .data          0x0000000000000000        0x0 /home/james/devkitPro/devkitARM/bin/../lib/gcc/arm-none-eabi/6.3.0/../../../../arm-none-eabi/lib/thumb/libg.a(lib_a-strlen-stub.o)
 .bss           0x0000000000000000        0x0 /home/james/devkitPro/devkitARM/bin/../lib/gcc/arm-none-eabi/6.3.0/../../../../arm-none-eabi/lib/thumb/libg.a(lib_a-strlen-stub.o)
 .text          0x0000000000000000        0x0 /home/james/devkitPro/devkitARM/bin/../lib/gcc/arm-none-eabi/6.3.0/../../../../arm-none-eabi/lib/thumb/libg.a(lib_a-strncpy.o)
 .data          0x0000000000000000        0x0 /home/james/devkitPro/devkitARM/bin/../lib/gcc/arm-none-eabi/6.3.0/../../../../arm-none-eabi/lib/thumb/libg.a(lib_a-strncpy.o)
 .bss           0x0000000000000000        0x0 /home/james/devkitPro/devkitARM/bin/../lib/gcc/arm-none-eabi/6.3.0/../../../../arm-none-eabi/lib/thumb/libg.a(lib_a-strncpy.o)
 .text          0x0000000000000000        0x0 /home/james/devkitPro/devkitARM/bin/../lib/gcc/arm-none-eabi/6.3.0/../../../../arm-none-eabi/lib/thumb/libg.a(lib_a-svfiscanf.o)
 .data          0x0000000000000000        0x0 /home/james/devkitPro/devkitARM/bin/../lib/gcc/arm-none-eabi/6.3.0/../../../../arm-none-eabi/lib/thumb/libg.a(lib_a-svfiscanf.o)
 .bss           0x0000000000000000        0x0 /home/james/devkitPro/devkitARM/bin/../lib/gcc/arm-none-eabi/6.3.0/../../../../arm-none-eabi/lib/thumb/libg.a(lib_a-svfiscanf.o)
 .text          0x0000000000000000        0x0 /home/james/devkitPro/devkitARM/bin/../lib/gcc/arm-none-eabi/6.3.0/../../../../arm-none-eabi/lib/thumb/libg.a(lib_a-svfprintf.o)
 .data          0x0000000000000000        0x0 /home/james/devkitPro/devkitARM/bin/../lib/gcc/arm-none-eabi/6.3.0/../../../../arm-none-eabi/lib/thumb/libg.a(lib_a-svfprintf.o)
 .bss           0x0000000000000000        0x0 /home/james/devkitPro/devkitARM/bin/../lib/gcc/arm-none-eabi/6.3.0/../../../../arm-none-eabi/lib/thumb/libg.a(lib_a-svfprintf.o)
 .text          0x0000000000000000        0x0 /home/james/devkitPro/devkitARM/bin/../lib/gcc/arm-none-eabi/6.3.0/../../../../arm-none-eabi/lib/thumb/libg.a(lib_a-ungetc.o)
 .data          0x0000000000000000        0x0 /home/james/devkitPro/devkitARM/bin/../lib/gcc/arm-none-eabi/6.3.0/../../../../arm-none-eabi/lib/thumb/libg.a(lib_a-ungetc.o)
 .bss           0x0000000000000000        0x0 /home/james/devkitPro/devkitARM/bin/../lib/gcc/arm-none-eabi/6.3.0/../../../../arm-none-eabi/lib/thumb/libg.a(lib_a-ungetc.o)
 .text.ungetc   0x0000000000000000       0x18 /home/james/devkitPro/devkitARM/bin/../lib/gcc/arm-none-eabi/6.3.0/../../../../arm-none-eabi/lib/thumb/libg.a(lib_a-ungetc.o)
 .text          0x0000000000000000        0x0 /home/james/devkitPro/devkitARM/bin/../lib/gcc/arm-none-eabi/6.3.0/../../../../arm-none-eabi/lib/thumb/libg.a(lib_a-u_strerr.o)
 .data          0x0000000000000000        0x0 /home/james/devkitPro/devkitARM/bin/../lib/gcc/arm-none-eabi/6.3.0/../../../../arm-none-eabi/lib/thumb/libg.a(lib_a-u_strerr.o)
 .bss           0x0000000000000000        0x0 /home/james/devkitPro/devkitARM/bin/../lib/gcc/arm-none-eabi/6.3.0/../../../../arm-none-eabi/lib/thumb/libg.a(lib_a-u_strerr.o)
 .text          0x0000000000000000        0x0 /home/james/devkitPro/devkitARM/bin/../lib/gcc/arm-none-eabi/6.3.0/../../../../arm-none-eabi/lib/thumb/libg.a(lib_a-vfiprintf.o)
 .data          0x0000000000000000        0x0 /home/james/devkitPro/devkitARM/bin/../lib/gcc/arm-none-eabi/6.3.0/../../../../arm-none-eabi/lib/thumb/libg.a(lib_a-vfiprintf.o)
 .bss           0x0000000000000000        0x0 /home/james/devkitPro/devkitARM/bin/../lib/gcc/arm-none-eabi/6.3.0/../../../../arm-none-eabi/lib/thumb/libg.a(lib_a-vfiprintf.o)
 .text.__sprint_r
                0x0000000000000000       0x18 /home/james/devkitPro/devkitARM/bin/../lib/gcc/arm-none-eabi/6.3.0/../../../../arm-none-eabi/lib/thumb/libg.a(lib_a-vfiprintf.o)
 .text.vfiprintf
                0x0000000000000000       0x1c /home/james/devkitPro/devkitARM/bin/../lib/gcc/arm-none-eabi/6.3.0/../../../../arm-none-eabi/lib/thumb/libg.a(lib_a-vfiprintf.o)
 .text          0x0000000000000000        0x0 /home/james/devkitPro/devkitARM/bin/../lib/gcc/arm-none-eabi/6.3.0/../../../../arm-none-eabi/lib/thumb/libg.a(lib_a-vfscanf.o)
 .data          0x0000000000000000        0x0 /home/james/devkitPro/devkitARM/bin/../lib/gcc/arm-none-eabi/6.3.0/../../../../arm-none-eabi/lib/thumb/libg.a(lib_a-vfscanf.o)
 .bss           0x0000000000000000        0x0 /home/james/devkitPro/devkitARM/bin/../lib/gcc/arm-none-eabi/6.3.0/../../../../arm-none-eabi/lib/thumb/libg.a(lib_a-vfscanf.o)
 .text.vfscanf  0x0000000000000000       0x2c /home/james/devkitPro/devkitARM/bin/../lib/gcc/arm-none-eabi/6.3.0/../../../../arm-none-eabi/lib/thumb/libg.a(lib_a-vfscanf.o)
 .text.__svfscanf
                0x0000000000000000       0x1c /home/james/devkitPro/devkitARM/bin/../lib/gcc/arm-none-eabi/6.3.0/../../../../arm-none-eabi/lib/thumb/libg.a(lib_a-vfscanf.o)
 .text          0x0000000000000000        0x0 /home/james/devkitPro/devkitARM/bin/../lib/gcc/arm-none-eabi/6.3.0/../../../../arm-none-eabi/lib/thumb/libg.a(lib_a-wcrtomb.o)
 .data          0x0000000000000000        0x0 /home/james/devkitPro/devkitARM/bin/../lib/gcc/arm-none-eabi/6.3.0/../../../../arm-none-eabi/lib/thumb/libg.a(lib_a-wcrtomb.o)
 .bss           0x0000000000000000        0x0 /home/james/devkitPro/devkitARM/bin/../lib/gcc/arm-none-eabi/6.3.0/../../../../arm-none-eabi/lib/thumb/libg.a(lib_a-wcrtomb.o)
 .text.wcrtomb  0x0000000000000000       0x84 /home/james/devkitPro/devkitARM/bin/../lib/gcc/arm-none-eabi/6.3.0/../../../../arm-none-eabi/lib/thumb/libg.a(lib_a-wcrtomb.o)
 .text          0x0000000000000000        0x0 /home/james/devkitPro/devkitARM/bin/../lib/gcc/arm-none-eabi/6.3.0/../../../../arm-none-eabi/lib/thumb/libg.a(lib_a-wcsrtombs.o)
 .data          0x0000000000000000        0x0 /home/james/devkitPro/devkitARM/bin/../lib/gcc/arm-none-eabi/6.3.0/../../../../arm-none-eabi/lib/thumb/libg.a(lib_a-wcsrtombs.o)
 .bss           0x0000000000000000        0x0 /home/james/devkitPro/devkitARM/bin/../lib/gcc/arm-none-eabi/6.3.0/../../../../arm-none-eabi/lib/thumb/libg.a(lib_a-wcsrtombs.o)
 .text.wcsrtombs
                0x0000000000000000       0x28 /home/james/devkitPro/devkitARM/bin/../lib/gcc/arm-none-eabi/6.3.0/../../../../arm-none-eabi/lib/thumb/libg.a(lib_a-wcsrtombs.o)
 .text          0x0000000000000000        0x0 /home/james/devkitPro/devkitARM/bin/../lib/gcc/arm-none-eabi/6.3.0/../../../../arm-none-eabi/lib/thumb/libg.a(lib_a-wsetup.o)
 .data          0x0000000000000000        0x0 /home/james/devkitPro/devkitARM/bin/../lib/gcc/arm-none-eabi/6.3.0/../../../../arm-none-eabi/lib/thumb/libg.a(lib_a-wsetup.o)
 .bss           0x0000000000000000        0x0 /home/james/devkitPro/devkitARM/bin/../lib/gcc/arm-none-eabi/6.3.0/../../../../arm-none-eabi/lib/thumb/libg.a(lib_a-wsetup.o)
 .text          0x0000000000000000        0x0 /home/james/devkitPro/devkitARM/bin/../lib/gcc/arm-none-eabi/6.3.0/../../../../arm-none-eabi/lib/thumb/libg.a(lib_a-dtoa.o)
 .data          0x0000000000000000        0x0 /home/james/devkitPro/devkitARM/bin/../lib/gcc/arm-none-eabi/6.3.0/../../../../arm-none-eabi/lib/thumb/libg.a(lib_a-dtoa.o)
 .bss           0x0000000000000000        0x0 /home/james/devkitPro/devkitARM/bin/../lib/gcc/arm-none-eabi/6.3.0/../../../../arm-none-eabi/lib/thumb/libg.a(lib_a-dtoa.o)
 .text          0x0000000000000000        0x0 /home/james/devkitPro/devkitARM/bin/../lib/gcc/arm-none-eabi/6.3.0/../../../../arm-none-eabi/lib/thumb/libg.a(lib_a-fflush.o)
 .data          0x0000000000000000        0x0 /home/james/devkitPro/devkitARM/bin/../lib/gcc/arm-none-eabi/6.3.0/../../../../arm-none-eabi/lib/thumb/libg.a(lib_a-fflush.o)
 .bss           0x0000000000000000        0x0 /home/james/devkitPro/devkitARM/bin/../lib/gcc/arm-none-eabi/6.3.0/../../../../arm-none-eabi/lib/thumb/libg.a(lib_a-fflush.o)
 .text          0x0000000000000000        0x0 /home/james/devkitPro/devkitARM/bin/../lib/gcc/arm-none-eabi/6.3.0/../../../../arm-none-eabi/lib/thumb/libg.a(lib_a-findfp.o)
 .data          0x0000000000000000        0x0 /home/james/devkitPro/devkitARM/bin/../lib/gcc/arm-none-eabi/6.3.0/../../../../arm-none-eabi/lib/thumb/libg.a(lib_a-findfp.o)
 .bss           0x0000000000000000        0x0 /home/james/devkitPro/devkitARM/bin/../lib/gcc/arm-none-eabi/6.3.0/../../../../arm-none-eabi/lib/thumb/libg.a(lib_a-findfp.o)
 .text.__fp_lock
                0x0000000000000000       0x1c /home/james/devkitPro/devkitARM/bin/../lib/gcc/arm-none-eabi/6.3.0/../../../../arm-none-eabi/lib/thumb/libg.a(lib_a-findfp.o)
 .text.__fp_unlock
                0x0000000000000000       0x1c /home/james/devkitPro/devkitARM/bin/../lib/gcc/arm-none-eabi/6.3.0/../../../../arm-none-eabi/lib/thumb/libg.a(lib_a-findfp.o)
 .text.__sfmoreglue
                0x0000000000000000       0x34 /home/james/devkitPro/devkitARM/bin/../lib/gcc/arm-none-eabi/6.3.0/../../../../arm-none-eabi/lib/thumb/libg.a(lib_a-findfp.o)
 .text._cleanup
                0x0000000000000000       0x1c /home/james/devkitPro/devkitARM/bin/../lib/gcc/arm-none-eabi/6.3.0/../../../../arm-none-eabi/lib/thumb/libg.a(lib_a-findfp.o)
 .text.__sfp    0x0000000000000000       0xb0 /home/james/devkitPro/devkitARM/bin/../lib/gcc/arm-none-eabi/6.3.0/../../../../arm-none-eabi/lib/thumb/libg.a(lib_a-findfp.o)
 .text.__sinit_lock_acquire
                0x0000000000000000       0x14 /home/james/devkitPro/devkitARM/bin/../lib/gcc/arm-none-eabi/6.3.0/../../../../arm-none-eabi/lib/thumb/libg.a(lib_a-findfp.o)
 .text.__sinit_lock_release
                0x0000000000000000       0x14 /home/james/devkitPro/devkitARM/bin/../lib/gcc/arm-none-eabi/6.3.0/../../../../arm-none-eabi/lib/thumb/libg.a(lib_a-findfp.o)
 .text.__fp_lock_all
                0x0000000000000000       0x20 /home/james/devkitPro/devkitARM/bin/../lib/gcc/arm-none-eabi/6.3.0/../../../../arm-none-eabi/lib/thumb/libg.a(lib_a-findfp.o)
 .text.__fp_unlock_all
                0x0000000000000000       0x20 /home/james/devkitPro/devkitARM/bin/../lib/gcc/arm-none-eabi/6.3.0/../../../../arm-none-eabi/lib/thumb/libg.a(lib_a-findfp.o)
 .text          0x0000000000000000        0x0 /home/james/devkitPro/devkitARM/bin/../lib/gcc/arm-none-eabi/6.3.0/../../../../arm-none-eabi/lib/thumb/libg.a(lib_a-fputc.o)
 .data          0x0000000000000000        0x0 /home/james/devkitPro/devkitARM/bin/../lib/gcc/arm-none-eabi/6.3.0/../../../../arm-none-eabi/lib/thumb/libg.a(lib_a-fputc.o)
 .bss           0x0000000000000000        0x0 /home/james/devkitPro/devkitARM/bin/../lib/gcc/arm-none-eabi/6.3.0/../../../../arm-none-eabi/lib/thumb/libg.a(lib_a-fputc.o)
 .text._fputc_r
                0x0000000000000000       0x54 /home/james/devkitPro/devkitARM/bin/../lib/gcc/arm-none-eabi/6.3.0/../../../../arm-none-eabi/lib/thumb/libg.a(lib_a-fputc.o)
 .text          0x0000000000000000        0x0 /home/james/devkitPro/devkitARM/bin/../lib/gcc/arm-none-eabi/6.3.0/../../../../arm-none-eabi/lib/thumb/libg.a(lib_a-fputs.o)
 .data          0x0000000000000000        0x0 /home/james/devkitPro/devkitARM/bin/../lib/gcc/arm-none-eabi/6.3.0/../../../../arm-none-eabi/lib/thumb/libg.a(lib_a-fputs.o)
 .bss           0x0000000000000000        0x0 /home/james/devkitPro/devkitARM/bin/../lib/gcc/arm-none-eabi/6.3.0/../../../../arm-none-eabi/lib/thumb/libg.a(lib_a-fputs.o)
 .text          0x0000000000000000        0x0 /home/james/devkitPro/devkitARM/bin/../lib/gcc/arm-none-eabi/6.3.0/../../../../arm-none-eabi/lib/thumb/libg.a(lib_a-fread.o)
 .data          0x0000000000000000        0x0 /home/james/devkitPro/devkitARM/bin/../lib/gcc/arm-none-eabi/6.3.0/../../../../arm-none-eabi/lib/thumb/libg.a(lib_a-fread.o)
 .bss           0x0000000000000000        0x0 /home/james/devkitPro/devkitARM/bin/../lib/gcc/arm-none-eabi/6.3.0/../../../../arm-none-eabi/lib/thumb/libg.a(lib_a-fread.o)
 .text.fread    0x0000000000000000       0x24 /home/james/devkitPro/devkitARM/bin/../lib/gcc/arm-none-eabi/6.3.0/../../../../arm-none-eabi/lib/thumb/libg.a(lib_a-fread.o)
 .text          0x0000000000000000        0x0 /home/james/devkitPro/devkitARM/bin/../lib/gcc/arm-none-eabi/6.3.0/../../../../arm-none-eabi/lib/thumb/libg.a(lib_a-freer.o)
 .data          0x0000000000000000        0x0 /home/james/devkitPro/devkitARM/bin/../lib/gcc/arm-none-eabi/6.3.0/../../../../arm-none-eabi/lib/thumb/libg.a(lib_a-freer.o)
 .bss           0x0000000000000000        0x0 /home/james/devkitPro/devkitARM/bin/../lib/gcc/arm-none-eabi/6.3.0/../../../../arm-none-eabi/lib/thumb/libg.a(lib_a-freer.o)
 .text          0x0000000000000000        0x0 /home/james/devkitPro/devkitARM/bin/../lib/gcc/arm-none-eabi/6.3.0/../../../../arm-none-eabi/lib/thumb/libg.a(lib_a-fvwrite.o)
 .data          0x0000000000000000        0x0 /home/james/devkitPro/devkitARM/bin/../lib/gcc/arm-none-eabi/6.3.0/../../../../arm-none-eabi/lib/thumb/libg.a(lib_a-fvwrite.o)
 .bss           0x0000000000000000        0x0 /home/james/devkitPro/devkitARM/bin/../lib/gcc/arm-none-eabi/6.3.0/../../../../arm-none-eabi/lib/thumb/libg.a(lib_a-fvwrite.o)
 .text          0x0000000000000000        0x0 /home/james/devkitPro/devkitARM/bin/../lib/gcc/arm-none-eabi/6.3.0/../../../../arm-none-eabi/lib/thumb/libg.a(lib_a-fwalk.o)
 .data          0x0000000000000000        0x0 /home/james/devkitPro/devkitARM/bin/../lib/gcc/arm-none-eabi/6.3.0/../../../../arm-none-eabi/lib/thumb/libg.a(lib_a-fwalk.o)
 .bss           0x0000000000000000        0x0 /home/james/devkitPro/devkitARM/bin/../lib/gcc/arm-none-eabi/6.3.0/../../../../arm-none-eabi/lib/thumb/libg.a(lib_a-fwalk.o)
 .text          0x0000000000000000        0x0 /home/james/devkitPro/devkitARM/bin/../lib/gcc/arm-none-eabi/6.3.0/../../../../arm-none-eabi/lib/thumb/libg.a(lib_a-impure.o)
 .data          0x0000000000000000        0x0 /home/james/devkitPro/devkitARM/bin/../lib/gcc/arm-none-eabi/6.3.0/../../../../arm-none-eabi/lib/thumb/libg.a(lib_a-impure.o)
 .bss           0x0000000000000000        0x0 /home/james/devkitPro/devkitARM/bin/../lib/gcc/arm-none-eabi/6.3.0/../../../../arm-none-eabi/lib/thumb/libg.a(lib_a-impure.o)
 .text          0x0000000000000000        0x0 /home/james/devkitPro/devkitARM/bin/../lib/gcc/arm-none-eabi/6.3.0/../../../../arm-none-eabi/lib/thumb/libg.a(lib_a-iswspace.o)
 .data          0x0000000000000000        0x0 /home/james/devkitPro/devkitARM/bin/../lib/gcc/arm-none-eabi/6.3.0/../../../../arm-none-eabi/lib/thumb/libg.a(lib_a-iswspace.o)
 .bss           0x0000000000000000        0x0 /home/james/devkitPro/devkitARM/bin/../lib/gcc/arm-none-eabi/6.3.0/../../../../arm-none-eabi/lib/thumb/libg.a(lib_a-iswspace.o)
 .text          0x0000000000000000        0x0 /home/james/devkitPro/devkitARM/bin/../lib/gcc/arm-none-eabi/6.3.0/../../../../arm-none-eabi/lib/thumb/libg.a(lib_a-jp2uc.o)
 .data          0x0000000000000000        0x0 /home/james/devkitPro/devkitARM/bin/../lib/gcc/arm-none-eabi/6.3.0/../../../../arm-none-eabi/lib/thumb/libg.a(lib_a-jp2uc.o)
 .bss           0x0000000000000000        0x0 /home/james/devkitPro/devkitARM/bin/../lib/gcc/arm-none-eabi/6.3.0/../../../../arm-none-eabi/lib/thumb/libg.a(lib_a-jp2uc.o)
 .text          0x0000000000000000        0x0 /home/james/devkitPro/devkitARM/bin/../lib/gcc/arm-none-eabi/6.3.0/../../../../arm-none-eabi/lib/thumb/libg.a(lib_a-localeconv.o)
 .data          0x0000000000000000        0x0 /home/james/devkitPro/devkitARM/bin/../lib/gcc/arm-none-eabi/6.3.0/../../../../arm-none-eabi/lib/thumb/libg.a(lib_a-localeconv.o)
 .bss           0x0000000000000000        0x0 /home/james/devkitPro/devkitARM/bin/../lib/gcc/arm-none-eabi/6.3.0/../../../../arm-none-eabi/lib/thumb/libg.a(lib_a-localeconv.o)
 .text.localeconv
                0x0000000000000000       0x1c /home/james/devkitPro/devkitARM/bin/../lib/gcc/arm-none-eabi/6.3.0/../../../../arm-none-eabi/lib/thumb/libg.a(lib_a-localeconv.o)
 .text          0x0000000000000000        0x0 /home/james/devkitPro/devkitARM/bin/../lib/gcc/arm-none-eabi/6.3.0/../../../../arm-none-eabi/lib/thumb/libg.a(lib_a-locale.o)
 .data          0x0000000000000000        0x0 /home/james/devkitPro/devkitARM/bin/../lib/gcc/arm-none-eabi/6.3.0/../../../../arm-none-eabi/lib/thumb/libg.a(lib_a-locale.o)
 .bss           0x0000000000000000        0x0 /home/james/devkitPro/devkitARM/bin/../lib/gcc/arm-none-eabi/6.3.0/../../../../arm-none-eabi/lib/thumb/libg.a(lib_a-locale.o)
 .text.currentlocale
                0x0000000000000000       0x64 /home/james/devkitPro/devkitARM/bin/../lib/gcc/arm-none-eabi/6.3.0/../../../../arm-none-eabi/lib/thumb/libg.a(lib_a-locale.o)
 .text.__loadlocale
                0x0000000000000000      0x5e4 /home/james/devkitPro/devkitARM/bin/../lib/gcc/arm-none-eabi/6.3.0/../../../../arm-none-eabi/lib/thumb/libg.a(lib_a-locale.o)
 .rodata.__loadlocale
                0x0000000000000000       0xd4 /home/james/devkitPro/devkitARM/bin/../lib/gcc/arm-none-eabi/6.3.0/../../../../arm-none-eabi/lib/thumb/libg.a(lib_a-locale.o)
 .text.__get_locale_env
                0x0000000000000000       0x58 /home/james/devkitPro/devkitARM/bin/../lib/gcc/arm-none-eabi/6.3.0/../../../../arm-none-eabi/lib/thumb/libg.a(lib_a-locale.o)
 .text._setlocale_r
                0x0000000000000000      0x224 /home/james/devkitPro/devkitARM/bin/../lib/gcc/arm-none-eabi/6.3.0/../../../../arm-none-eabi/lib/thumb/libg.a(lib_a-locale.o)
 .text.setlocale
                0x0000000000000000       0x18 /home/james/devkitPro/devkitARM/bin/../lib/gcc/arm-none-eabi/6.3.0/../../../../arm-none-eabi/lib/thumb/libg.a(lib_a-locale.o)
 .bss._PathLocale
                0x0000000000000000        0x4 /home/james/devkitPro/devkitARM/bin/../lib/gcc/arm-none-eabi/6.3.0/../../../../arm-none-eabi/lib/thumb/libg.a(lib_a-locale.o)
 .bss.global_locale_string
                0x0000000000000000       0xe7 /home/james/devkitPro/devkitARM/bin/../lib/gcc/arm-none-eabi/6.3.0/../../../../arm-none-eabi/lib/thumb/libg.a(lib_a-locale.o)
 .bss.new_categories.5373
                0x0000000000000000       0xe0 /home/james/devkitPro/devkitARM/bin/../lib/gcc/arm-none-eabi/6.3.0/../../../../arm-none-eabi/lib/thumb/libg.a(lib_a-locale.o)
 .bss.saved_categories.5374
                0x0000000000000000       0xe0 /home/james/devkitPro/devkitARM/bin/../lib/gcc/arm-none-eabi/6.3.0/../../../../arm-none-eabi/lib/thumb/libg.a(lib_a-locale.o)
 .data.__default_locale
                0x0000000000000000       0x20 /home/james/devkitPro/devkitARM/bin/../lib/gcc/arm-none-eabi/6.3.0/../../../../arm-none-eabi/lib/thumb/libg.a(lib_a-locale.o)
 .rodata.__C_locale
                0x0000000000000000      0x16c /home/james/devkitPro/devkitARM/bin/../lib/gcc/arm-none-eabi/6.3.0/../../../../arm-none-eabi/lib/thumb/libg.a(lib_a-locale.o)
 .rodata.__get_locale_env.str1.4
                0x0000000000000000        0xd /home/james/devkitPro/devkitARM/bin/../lib/gcc/arm-none-eabi/6.3.0/../../../../arm-none-eabi/lib/thumb/libg.a(lib_a-locale.o)
 .rodata.__loadlocale.str1.4
                0x0000000000000000       0xcf /home/james/devkitPro/devkitARM/bin/../lib/gcc/arm-none-eabi/6.3.0/../../../../arm-none-eabi/lib/thumb/libg.a(lib_a-locale.o)
 .rodata.categories
                0x0000000000000000       0x1c /home/james/devkitPro/devkitARM/bin/../lib/gcc/arm-none-eabi/6.3.0/../../../../arm-none-eabi/lib/thumb/libg.a(lib_a-locale.o)
 .rodata.currentlocale.str1.4
                0x0000000000000000        0x2 /home/james/devkitPro/devkitARM/bin/../lib/gcc/arm-none-eabi/6.3.0/../../../../arm-none-eabi/lib/thumb/libg.a(lib_a-locale.o)
 .text          0x0000000000000000        0x0 /home/james/devkitPro/devkitARM/bin/../lib/gcc/arm-none-eabi/6.3.0/../../../../arm-none-eabi/lib/thumb/libg.a(lib_a-makebuf.o)
 .data          0x0000000000000000        0x0 /home/james/devkitPro/devkitARM/bin/../lib/gcc/arm-none-eabi/6.3.0/../../../../arm-none-eabi/lib/thumb/libg.a(lib_a-makebuf.o)
 .bss           0x0000000000000000        0x0 /home/james/devkitPro/devkitARM/bin/../lib/gcc/arm-none-eabi/6.3.0/../../../../arm-none-eabi/lib/thumb/libg.a(lib_a-makebuf.o)
 .text          0x0000000000000000        0x0 /home/james/devkitPro/devkitARM/bin/../lib/gcc/arm-none-eabi/6.3.0/../../../../arm-none-eabi/lib/thumb/libg.a(lib_a-mbrtowc.o)
 .data          0x0000000000000000        0x0 /home/james/devkitPro/devkitARM/bin/../lib/gcc/arm-none-eabi/6.3.0/../../../../arm-none-eabi/lib/thumb/libg.a(lib_a-mbrtowc.o)
 .bss           0x0000000000000000        0x0 /home/james/devkitPro/devkitARM/bin/../lib/gcc/arm-none-eabi/6.3.0/../../../../arm-none-eabi/lib/thumb/libg.a(lib_a-mbrtowc.o)
 .text.mbrtowc  0x0000000000000000       0x90 /home/james/devkitPro/devkitARM/bin/../lib/gcc/arm-none-eabi/6.3.0/../../../../arm-none-eabi/lib/thumb/libg.a(lib_a-mbrtowc.o)
 .text          0x0000000000000000        0x0 /home/james/devkitPro/devkitARM/bin/../lib/gcc/arm-none-eabi/6.3.0/../../../../arm-none-eabi/lib/thumb/libg.a(lib_a-mbtowc_r.o)
 .data          0x0000000000000000        0x0 /home/james/devkitPro/devkitARM/bin/../lib/gcc/arm-none-eabi/6.3.0/../../../../arm-none-eabi/lib/thumb/libg.a(lib_a-mbtowc_r.o)
 .bss           0x0000000000000000        0x0 /home/james/devkitPro/devkitARM/bin/../lib/gcc/arm-none-eabi/6.3.0/../../../../arm-none-eabi/lib/thumb/libg.a(lib_a-mbtowc_r.o)
 .text._mbtowc_r
                0x0000000000000000       0x48 /home/james/devkitPro/devkitARM/bin/../lib/gcc/arm-none-eabi/6.3.0/../../../../arm-none-eabi/lib/thumb/libg.a(lib_a-mbtowc_r.o)
 .text.__ascii_mbtowc
                0x0000000000000000       0x2c /home/james/devkitPro/devkitARM/bin/../lib/gcc/arm-none-eabi/6.3.0/../../../../arm-none-eabi/lib/thumb/libg.a(lib_a-mbtowc_r.o)
 .text.__sjis_mbtowc
                0x0000000000000000       0xb0 /home/james/devkitPro/devkitARM/bin/../lib/gcc/arm-none-eabi/6.3.0/../../../../arm-none-eabi/lib/thumb/libg.a(lib_a-mbtowc_r.o)
 .text.__eucjp_mbtowc
                0x0000000000000000       0xcc /home/james/devkitPro/devkitARM/bin/../lib/gcc/arm-none-eabi/6.3.0/../../../../arm-none-eabi/lib/thumb/libg.a(lib_a-mbtowc_r.o)
 .text.__jis_mbtowc
                0x0000000000000000      0x140 /home/james/devkitPro/devkitARM/bin/../lib/gcc/arm-none-eabi/6.3.0/../../../../arm-none-eabi/lib/thumb/libg.a(lib_a-mbtowc_r.o)
 .rodata.__jis_mbtowc
                0x0000000000000000       0x18 /home/james/devkitPro/devkitARM/bin/../lib/gcc/arm-none-eabi/6.3.0/../../../../arm-none-eabi/lib/thumb/libg.a(lib_a-mbtowc_r.o)
 .rodata.JIS_action_table
                0x0000000000000000       0x48 /home/james/devkitPro/devkitARM/bin/../lib/gcc/arm-none-eabi/6.3.0/../../../../arm-none-eabi/lib/thumb/libg.a(lib_a-mbtowc_r.o)
 .rodata.JIS_state_table
                0x0000000000000000       0x48 /home/james/devkitPro/devkitARM/bin/../lib/gcc/arm-none-eabi/6.3.0/../../../../arm-none-eabi/lib/thumb/libg.a(lib_a-mbtowc_r.o)
 .text          0x0000000000000000        0x0 /home/james/devkitPro/devkitARM/bin/../lib/gcc/arm-none-eabi/6.3.0/../../../../arm-none-eabi/lib/thumb/libg.a(lib_a-memchr-stub.o)
 .data          0x0000000000000000        0x0 /home/james/devkitPro/devkitARM/bin/../lib/gcc/arm-none-eabi/6.3.0/../../../../arm-none-eabi/lib/thumb/libg.a(lib_a-memchr-stub.o)
 .bss           0x0000000000000000        0x0 /home/james/devkitPro/devkitARM/bin/../lib/gcc/arm-none-eabi/6.3.0/../../../../arm-none-eabi/lib/thumb/libg.a(lib_a-memchr-stub.o)
 .text          0x0000000000000000        0x0 /home/james/devkitPro/devkitARM/bin/../lib/gcc/arm-none-eabi/6.3.0/../../../../arm-none-eabi/lib/thumb/libg.a(lib_a-memmove.o)
 .data          0x0000000000000000        0x0 /home/james/devkitPro/devkitARM/bin/../lib/gcc/arm-none-eabi/6.3.0/../../../../arm-none-eabi/lib/thumb/libg.a(lib_a-memmove.o)
 .bss           0x0000000000000000        0x0 /home/james/devkitPro/devkitARM/bin/../lib/gcc/arm-none-eabi/6.3.0/../../../../arm-none-eabi/lib/thumb/libg.a(lib_a-memmove.o)
 .text          0x0000000000000000        0x0 /home/james/devkitPro/devkitARM/bin/../lib/gcc/arm-none-eabi/6.3.0/../../../../arm-none-eabi/lib/thumb/libg.a(lib_a-mprec.o)
 .data          0x0000000000000000        0x0 /home/james/devkitPro/devkitARM/bin/../lib/gcc/arm-none-eabi/6.3.0/../../../../arm-none-eabi/lib/thumb/libg.a(lib_a-mprec.o)
 .bss           0x0000000000000000        0x0 /home/james/devkitPro/devkitARM/bin/../lib/gcc/arm-none-eabi/6.3.0/../../../../arm-none-eabi/lib/thumb/libg.a(lib_a-mprec.o)
 .text._mprec_log10
                0x0000000000000000       0x38 /home/james/devkitPro/devkitARM/bin/../lib/gcc/arm-none-eabi/6.3.0/../../../../arm-none-eabi/lib/thumb/libg.a(lib_a-mprec.o)
 .rodata.__mprec_tinytens
                0x0000000000000000       0x28 /home/james/devkitPro/devkitARM/bin/../lib/gcc/arm-none-eabi/6.3.0/../../../../arm-none-eabi/lib/thumb/libg.a(lib_a-mprec.o)
 .text          0x0000000000000000        0x0 /home/james/devkitPro/devkitARM/bin/../lib/gcc/arm-none-eabi/6.3.0/../../../../arm-none-eabi/lib/thumb/libg.a(lib_a-putc.o)
 .data          0x0000000000000000        0x0 /home/james/devkitPro/devkitARM/bin/../lib/gcc/arm-none-eabi/6.3.0/../../../../arm-none-eabi/lib/thumb/libg.a(lib_a-putc.o)
 .bss           0x0000000000000000        0x0 /home/james/devkitPro/devkitARM/bin/../lib/gcc/arm-none-eabi/6.3.0/../../../../arm-none-eabi/lib/thumb/libg.a(lib_a-putc.o)
 .text.putc     0x0000000000000000       0x7c /home/james/devkitPro/devkitARM/bin/../lib/gcc/arm-none-eabi/6.3.0/../../../../arm-none-eabi/lib/thumb/libg.a(lib_a-putc.o)
 .text          0x0000000000000000        0x0 /home/james/devkitPro/devkitARM/bin/../lib/gcc/arm-none-eabi/6.3.0/../../../../arm-none-eabi/lib/thumb/libg.a(lib_a-reallocr.o)
 .data          0x0000000000000000        0x0 /home/james/devkitPro/devkitARM/bin/../lib/gcc/arm-none-eabi/6.3.0/../../../../arm-none-eabi/lib/thumb/libg.a(lib_a-reallocr.o)
 .bss           0x0000000000000000        0x0 /home/james/devkitPro/devkitARM/bin/../lib/gcc/arm-none-eabi/6.3.0/../../../../arm-none-eabi/lib/thumb/libg.a(lib_a-reallocr.o)
 .text          0x0000000000000000        0x0 /home/james/devkitPro/devkitARM/bin/../lib/gcc/arm-none-eabi/6.3.0/../../../../arm-none-eabi/lib/thumb/libg.a(lib_a-refill.o)
 .data          0x0000000000000000        0x0 /home/james/devkitPro/devkitARM/bin/../lib/gcc/arm-none-eabi/6.3.0/../../../../arm-none-eabi/lib/thumb/libg.a(lib_a-refill.o)
 .bss           0x0000000000000000        0x0 /home/james/devkitPro/devkitARM/bin/../lib/gcc/arm-none-eabi/6.3.0/../../../../arm-none-eabi/lib/thumb/libg.a(lib_a-refill.o)
 .text          0x0000000000000000        0x0 /home/james/devkitPro/devkitARM/bin/../lib/gcc/arm-none-eabi/6.3.0/../../../../arm-none-eabi/lib/thumb/libg.a(lib_a-sccl.o)
 .data          0x0000000000000000        0x0 /home/james/devkitPro/devkitARM/bin/../lib/gcc/arm-none-eabi/6.3.0/../../../../arm-none-eabi/lib/thumb/libg.a(lib_a-sccl.o)
 .bss           0x0000000000000000        0x0 /home/james/devkitPro/devkitARM/bin/../lib/gcc/arm-none-eabi/6.3.0/../../../../arm-none-eabi/lib/thumb/libg.a(lib_a-sccl.o)
 .text          0x0000000000000000        0x0 /home/james/devkitPro/devkitARM/bin/../lib/gcc/arm-none-eabi/6.3.0/../../../../arm-none-eabi/lib/thumb/libg.a(lib_a-sf_nan.o)
 .data          0x0000000000000000        0x0 /home/james/devkitPro/devkitARM/bin/../lib/gcc/arm-none-eabi/6.3.0/../../../../arm-none-eabi/lib/thumb/libg.a(lib_a-sf_nan.o)
 .bss           0x0000000000000000        0x0 /home/james/devkitPro/devkitARM/bin/../lib/gcc/arm-none-eabi/6.3.0/../../../../arm-none-eabi/lib/thumb/libg.a(lib_a-sf_nan.o)
 .text          0x0000000000000000        0x0 /home/james/devkitPro/devkitARM/bin/../lib/gcc/arm-none-eabi/6.3.0/../../../../arm-none-eabi/lib/thumb/libg.a(lib_a-s_frexp.o)
 .data          0x0000000000000000        0x0 /home/james/devkitPro/devkitARM/bin/../lib/gcc/arm-none-eabi/6.3.0/../../../../arm-none-eabi/lib/thumb/libg.a(lib_a-s_frexp.o)
 .bss           0x0000000000000000        0x0 /home/james/devkitPro/devkitARM/bin/../lib/gcc/arm-none-eabi/6.3.0/../../../../arm-none-eabi/lib/thumb/libg.a(lib_a-s_frexp.o)
 .text          0x0000000000000000        0x0 /home/james/devkitPro/devkitARM/bin/../lib/gcc/arm-none-eabi/6.3.0/../../../../arm-none-eabi/lib/thumb/libg.a(lib_a-sprintf.o)
 .data          0x0000000000000000        0x0 /home/james/devkitPro/devkitARM/bin/../lib/gcc/arm-none-eabi/6.3.0/../../../../arm-none-eabi/lib/thumb/libg.a(lib_a-sprintf.o)
 .bss           0x0000000000000000        0x0 /home/james/devkitPro/devkitARM/bin/../lib/gcc/arm-none-eabi/6.3.0/../../../../arm-none-eabi/lib/thumb/libg.a(lib_a-sprintf.o)
 .text._sprintf_r
                0x0000000000000000       0x40 /home/james/devkitPro/devkitARM/bin/../lib/gcc/arm-none-eabi/6.3.0/../../../../arm-none-eabi/lib/thumb/libg.a(lib_a-sprintf.o)
 .text          0x0000000000000000        0x0 /home/james/devkitPro/devkitARM/bin/../lib/gcc/arm-none-eabi/6.3.0/../../../../arm-none-eabi/lib/thumb/libg.a(lib_a-stpncpy.o)
 .data          0x0000000000000000        0x0 /home/james/devkitPro/devkitARM/bin/../lib/gcc/arm-none-eabi/6.3.0/../../../../arm-none-eabi/lib/thumb/libg.a(lib_a-stpncpy.o)
 .bss           0x0000000000000000        0x0 /home/james/devkitPro/devkitARM/bin/../lib/gcc/arm-none-eabi/6.3.0/../../../../arm-none-eabi/lib/thumb/libg.a(lib_a-stpncpy.o)
 .text          0x0000000000000000        0x0 /home/james/devkitPro/devkitARM/bin/../lib/gcc/arm-none-eabi/6.3.0/../../../../arm-none-eabi/lib/thumb/libg.a(lib_a-strcasecmp.o)
 .data          0x0000000000000000        0x0 /home/james/devkitPro/devkitARM/bin/../lib/gcc/arm-none-eabi/6.3.0/../../../../arm-none-eabi/lib/thumb/libg.a(lib_a-strcasecmp.o)
 .bss           0x0000000000000000        0x0 /home/james/devkitPro/devkitARM/bin/../lib/gcc/arm-none-eabi/6.3.0/../../../../arm-none-eabi/lib/thumb/libg.a(lib_a-strcasecmp.o)
 .text.strcasecmp
                0x0000000000000000       0x58 /home/james/devkitPro/devkitARM/bin/../lib/gcc/arm-none-eabi/6.3.0/../../../../arm-none-eabi/lib/thumb/libg.a(lib_a-strcasecmp.o)
 .comment       0x0000000000000000       0x23 /home/james/devkitPro/devkitARM/bin/../lib/gcc/arm-none-eabi/6.3.0/../../../../arm-none-eabi/lib/thumb/libg.a(lib_a-strcasecmp.o)
 .ARM.attributes
                0x0000000000000000       0x30 /home/james/devkitPro/devkitARM/bin/../lib/gcc/arm-none-eabi/6.3.0/../../../../arm-none-eabi/lib/thumb/libg.a(lib_a-strcasecmp.o)
 .text          0x0000000000000000        0x0 /home/james/devkitPro/devkitARM/bin/../lib/gcc/arm-none-eabi/6.3.0/../../../../arm-none-eabi/lib/thumb/libg.a(lib_a-strcat.o)
 .data          0x0000000000000000        0x0 /home/james/devkitPro/devkitARM/bin/../lib/gcc/arm-none-eabi/6.3.0/../../../../arm-none-eabi/lib/thumb/libg.a(lib_a-strcat.o)
 .bss           0x0000000000000000        0x0 /home/james/devkitPro/devkitARM/bin/../lib/gcc/arm-none-eabi/6.3.0/../../../../arm-none-eabi/lib/thumb/libg.a(lib_a-strcat.o)
 .text.strcat   0x0000000000000000       0x50 /home/james/devkitPro/devkitARM/bin/../lib/gcc/arm-none-eabi/6.3.0/../../../../arm-none-eabi/lib/thumb/libg.a(lib_a-strcat.o)
 .comment       0x0000000000000000       0x23 /home/james/devkitPro/devkitARM/bin/../lib/gcc/arm-none-eabi/6.3.0/../../../../arm-none-eabi/lib/thumb/libg.a(lib_a-strcat.o)
 .ARM.attributes
                0x0000000000000000       0x30 /home/james/devkitPro/devkitARM/bin/../lib/gcc/arm-none-eabi/6.3.0/../../../../arm-none-eabi/lib/thumb/libg.a(lib_a-strcat.o)
 .text          0x0000000000000000        0x0 /home/james/devkitPro/devkitARM/bin/../lib/gcc/arm-none-eabi/6.3.0/../../../../arm-none-eabi/lib/thumb/libg.a(lib_a-strchr.o)
 .data          0x0000000000000000        0x0 /home/james/devkitPro/devkitARM/bin/../lib/gcc/arm-none-eabi/6.3.0/../../../../arm-none-eabi/lib/thumb/libg.a(lib_a-strchr.o)
 .bss           0x0000000000000000        0x0 /home/james/devkitPro/devkitARM/bin/../lib/gcc/arm-none-eabi/6.3.0/../../../../arm-none-eabi/lib/thumb/libg.a(lib_a-strchr.o)
 .text.strchr   0x0000000000000000       0xe0 /home/james/devkitPro/devkitARM/bin/../lib/gcc/arm-none-eabi/6.3.0/../../../../arm-none-eabi/lib/thumb/libg.a(lib_a-strchr.o)
 .comment       0x0000000000000000       0x23 /home/james/devkitPro/devkitARM/bin/../lib/gcc/arm-none-eabi/6.3.0/../../../../arm-none-eabi/lib/thumb/libg.a(lib_a-strchr.o)
 .ARM.attributes
                0x0000000000000000       0x30 /home/james/devkitPro/devkitARM/bin/../lib/gcc/arm-none-eabi/6.3.0/../../../../arm-none-eabi/lib/thumb/libg.a(lib_a-strchr.o)
 .data          0x0000000000000000        0x0 /home/james/devkitPro/devkitARM/bin/../lib/gcc/arm-none-eabi/6.3.0/../../../../arm-none-eabi/lib/thumb/libg.a(lib_a-strcmp.o)
 .bss           0x0000000000000000        0x0 /home/james/devkitPro/devkitARM/bin/../lib/gcc/arm-none-eabi/6.3.0/../../../../arm-none-eabi/lib/thumb/libg.a(lib_a-strcmp.o)
 .text          0x0000000000000000        0x0 /home/james/devkitPro/devkitARM/bin/../lib/gcc/arm-none-eabi/6.3.0/../../../../arm-none-eabi/lib/thumb/libg.a(lib_a-strlcpy.o)
 .data          0x0000000000000000        0x0 /home/james/devkitPro/devkitARM/bin/../lib/gcc/arm-none-eabi/6.3.0/../../../../arm-none-eabi/lib/thumb/libg.a(lib_a-strlcpy.o)
 .bss           0x0000000000000000        0x0 /home/james/devkitPro/devkitARM/bin/../lib/gcc/arm-none-eabi/6.3.0/../../../../arm-none-eabi/lib/thumb/libg.a(lib_a-strlcpy.o)
 .text.strlcpy  0x0000000000000000       0x4c /home/james/devkitPro/devkitARM/bin/../lib/gcc/arm-none-eabi/6.3.0/../../../../arm-none-eabi/lib/thumb/libg.a(lib_a-strlcpy.o)
 .comment       0x0000000000000000       0x23 /home/james/devkitPro/devkitARM/bin/../lib/gcc/arm-none-eabi/6.3.0/../../../../arm-none-eabi/lib/thumb/libg.a(lib_a-strlcpy.o)
 .ARM.attributes
                0x0000000000000000       0x30 /home/james/devkitPro/devkitARM/bin/../lib/gcc/arm-none-eabi/6.3.0/../../../../arm-none-eabi/lib/thumb/libg.a(lib_a-strlcpy.o)
 .text          0x0000000000000000        0x0 /home/james/devkitPro/devkitARM/bin/../lib/gcc/arm-none-eabi/6.3.0/../../../../arm-none-eabi/lib/thumb/libg.a(lib_a-strncasecmp.o)
 .data          0x0000000000000000        0x0 /home/james/devkitPro/devkitARM/bin/../lib/gcc/arm-none-eabi/6.3.0/../../../../arm-none-eabi/lib/thumb/libg.a(lib_a-strncasecmp.o)
 .bss           0x0000000000000000        0x0 /home/james/devkitPro/devkitARM/bin/../lib/gcc/arm-none-eabi/6.3.0/../../../../arm-none-eabi/lib/thumb/libg.a(lib_a-strncasecmp.o)
 .text.strncasecmp
                0x0000000000000000       0x6c /home/james/devkitPro/devkitARM/bin/../lib/gcc/arm-none-eabi/6.3.0/../../../../arm-none-eabi/lib/thumb/libg.a(lib_a-strncasecmp.o)
 .comment       0x0000000000000000       0x23 /home/james/devkitPro/devkitARM/bin/../lib/gcc/arm-none-eabi/6.3.0/../../../../arm-none-eabi/lib/thumb/libg.a(lib_a-strncasecmp.o)
 .ARM.attributes
                0x0000000000000000       0x30 /home/james/devkitPro/devkitARM/bin/../lib/gcc/arm-none-eabi/6.3.0/../../../../arm-none-eabi/lib/thumb/libg.a(lib_a-strncasecmp.o)
 .text          0x0000000000000000        0x0 /home/james/devkitPro/devkitARM/bin/../lib/gcc/arm-none-eabi/6.3.0/../../../../arm-none-eabi/lib/thumb/libg.a(lib_a-strncmp.o)
 .data          0x0000000000000000        0x0 /home/james/devkitPro/devkitARM/bin/../lib/gcc/arm-none-eabi/6.3.0/../../../../arm-none-eabi/lib/thumb/libg.a(lib_a-strncmp.o)
 .bss           0x0000000000000000        0x0 /home/james/devkitPro/devkitARM/bin/../lib/gcc/arm-none-eabi/6.3.0/../../../../arm-none-eabi/lib/thumb/libg.a(lib_a-strncmp.o)
 .text          0x0000000000000000        0x0 /home/james/devkitPro/devkitARM/bin/../lib/gcc/arm-none-eabi/6.3.0/../../../../arm-none-eabi/lib/thumb/libg.a(lib_a-strtod.o)
 .data          0x0000000000000000        0x0 /home/james/devkitPro/devkitARM/bin/../lib/gcc/arm-none-eabi/6.3.0/../../../../arm-none-eabi/lib/thumb/libg.a(lib_a-strtod.o)
 .bss           0x0000000000000000        0x0 /home/james/devkitPro/devkitARM/bin/../lib/gcc/arm-none-eabi/6.3.0/../../../../arm-none-eabi/lib/thumb/libg.a(lib_a-strtod.o)
 .text.strtod_l
                0x0000000000000000       0x1c /home/james/devkitPro/devkitARM/bin/../lib/gcc/arm-none-eabi/6.3.0/../../../../arm-none-eabi/lib/thumb/libg.a(lib_a-strtod.o)
 .text.strtod   0x0000000000000000       0x30 /home/james/devkitPro/devkitARM/bin/../lib/gcc/arm-none-eabi/6.3.0/../../../../arm-none-eabi/lib/thumb/libg.a(lib_a-strtod.o)
 .text.strtof_l
                0x0000000000000000       0x98 /home/james/devkitPro/devkitARM/bin/../lib/gcc/arm-none-eabi/6.3.0/../../../../arm-none-eabi/lib/thumb/libg.a(lib_a-strtod.o)
 .text.strtof   0x0000000000000000       0xac /home/james/devkitPro/devkitARM/bin/../lib/gcc/arm-none-eabi/6.3.0/../../../../arm-none-eabi/lib/thumb/libg.a(lib_a-strtod.o)
 .text          0x0000000000000000        0x0 /home/james/devkitPro/devkitARM/bin/../lib/gcc/arm-none-eabi/6.3.0/../../../../arm-none-eabi/lib/thumb/libg.a(lib_a-strtoll.o)
 .data          0x0000000000000000        0x0 /home/james/devkitPro/devkitARM/bin/../lib/gcc/arm-none-eabi/6.3.0/../../../../arm-none-eabi/lib/thumb/libg.a(lib_a-strtoll.o)
 .bss           0x0000000000000000        0x0 /home/james/devkitPro/devkitARM/bin/../lib/gcc/arm-none-eabi/6.3.0/../../../../arm-none-eabi/lib/thumb/libg.a(lib_a-strtoll.o)
 .text.strtoll_l
                0x0000000000000000       0x24 /home/james/devkitPro/devkitARM/bin/../lib/gcc/arm-none-eabi/6.3.0/../../../../arm-none-eabi/lib/thumb/libg.a(lib_a-strtoll.o)
 .text.strtoll  0x0000000000000000       0x38 /home/james/devkitPro/devkitARM/bin/../lib/gcc/arm-none-eabi/6.3.0/../../../../arm-none-eabi/lib/thumb/libg.a(lib_a-strtoll.o)
 .text          0x0000000000000000        0x0 /home/james/devkitPro/devkitARM/bin/../lib/gcc/arm-none-eabi/6.3.0/../../../../arm-none-eabi/lib/thumb/libg.a(lib_a-strtol.o)
 .data          0x0000000000000000        0x0 /home/james/devkitPro/devkitARM/bin/../lib/gcc/arm-none-eabi/6.3.0/../../../../arm-none-eabi/lib/thumb/libg.a(lib_a-strtol.o)
 .bss           0x0000000000000000        0x0 /home/james/devkitPro/devkitARM/bin/../lib/gcc/arm-none-eabi/6.3.0/../../../../arm-none-eabi/lib/thumb/libg.a(lib_a-strtol.o)
 .text.strtol_l
                0x0000000000000000       0x24 /home/james/devkitPro/devkitARM/bin/../lib/gcc/arm-none-eabi/6.3.0/../../../../arm-none-eabi/lib/thumb/libg.a(lib_a-strtol.o)
 .text.strtol   0x0000000000000000       0x38 /home/james/devkitPro/devkitARM/bin/../lib/gcc/arm-none-eabi/6.3.0/../../../../arm-none-eabi/lib/thumb/libg.a(lib_a-strtol.o)
 .text          0x0000000000000000        0x0 /home/james/devkitPro/devkitARM/bin/../lib/gcc/arm-none-eabi/6.3.0/../../../../arm-none-eabi/lib/thumb/libg.a(lib_a-strtoull.o)
 .data          0x0000000000000000        0x0 /home/james/devkitPro/devkitARM/bin/../lib/gcc/arm-none-eabi/6.3.0/../../../../arm-none-eabi/lib/thumb/libg.a(lib_a-strtoull.o)
 .bss           0x0000000000000000        0x0 /home/james/devkitPro/devkitARM/bin/../lib/gcc/arm-none-eabi/6.3.0/../../../../arm-none-eabi/lib/thumb/libg.a(lib_a-strtoull.o)
 .text.strtoull_l
                0x0000000000000000       0x24 /home/james/devkitPro/devkitARM/bin/../lib/gcc/arm-none-eabi/6.3.0/../../../../arm-none-eabi/lib/thumb/libg.a(lib_a-strtoull.o)
 .text.strtoull
                0x0000000000000000       0x38 /home/james/devkitPro/devkitARM/bin/../lib/gcc/arm-none-eabi/6.3.0/../../../../arm-none-eabi/lib/thumb/libg.a(lib_a-strtoull.o)
 .text          0x0000000000000000        0x0 /home/james/devkitPro/devkitARM/bin/../lib/gcc/arm-none-eabi/6.3.0/../../../../arm-none-eabi/lib/thumb/libg.a(lib_a-strtoul.o)
 .data          0x0000000000000000        0x0 /home/james/devkitPro/devkitARM/bin/../lib/gcc/arm-none-eabi/6.3.0/../../../../arm-none-eabi/lib/thumb/libg.a(lib_a-strtoul.o)
 .bss           0x0000000000000000        0x0 /home/james/devkitPro/devkitARM/bin/../lib/gcc/arm-none-eabi/6.3.0/../../../../arm-none-eabi/lib/thumb/libg.a(lib_a-strtoul.o)
 .text.strtoul_l
                0x0000000000000000       0x24 /home/james/devkitPro/devkitARM/bin/../lib/gcc/arm-none-eabi/6.3.0/../../../../arm-none-eabi/lib/thumb/libg.a(lib_a-strtoul.o)
 .text.strtoul  0x0000000000000000       0x38 /home/james/devkitPro/devkitARM/bin/../lib/gcc/arm-none-eabi/6.3.0/../../../../arm-none-eabi/lib/thumb/libg.a(lib_a-strtoul.o)
 .text          0x0000000000000000        0x0 /home/james/devkitPro/devkitARM/bin/../lib/gcc/arm-none-eabi/6.3.0/../../../../arm-none-eabi/lib/thumb/libg.a(lib_a-svfiprintf.o)
 .data          0x0000000000000000        0x0 /home/james/devkitPro/devkitARM/bin/../lib/gcc/arm-none-eabi/6.3.0/../../../../arm-none-eabi/lib/thumb/libg.a(lib_a-svfiprintf.o)
 .bss           0x0000000000000000        0x0 /home/james/devkitPro/devkitARM/bin/../lib/gcc/arm-none-eabi/6.3.0/../../../../arm-none-eabi/lib/thumb/libg.a(lib_a-svfiprintf.o)
 .text.get_arg  0x0000000000000000      0xc50 /home/james/devkitPro/devkitARM/bin/../lib/gcc/arm-none-eabi/6.3.0/../../../../arm-none-eabi/lib/thumb/libg.a(lib_a-svfiprintf.o)
 .rodata.get_arg
                0x0000000000000000      0x938 /home/james/devkitPro/devkitARM/bin/../lib/gcc/arm-none-eabi/6.3.0/../../../../arm-none-eabi/lib/thumb/libg.a(lib_a-svfiprintf.o)
 .text._svfiprintf_r
                0x0000000000000000     0x1bb0 /home/james/devkitPro/devkitARM/bin/../lib/gcc/arm-none-eabi/6.3.0/../../../../arm-none-eabi/lib/thumb/libg.a(lib_a-svfiprintf.o)
 .rodata._svfiprintf_r
                0x0000000000000000      0x16c /home/james/devkitPro/devkitARM/bin/../lib/gcc/arm-none-eabi/6.3.0/../../../../arm-none-eabi/lib/thumb/libg.a(lib_a-svfiprintf.o)
 .rodata._svfiprintf_r.str1.4
                0x0000000000000000       0x2f /home/james/devkitPro/devkitARM/bin/../lib/gcc/arm-none-eabi/6.3.0/../../../../arm-none-eabi/lib/thumb/libg.a(lib_a-svfiprintf.o)
 .rodata.blanks.7256
                0x0000000000000000       0x10 /home/james/devkitPro/devkitARM/bin/../lib/gcc/arm-none-eabi/6.3.0/../../../../arm-none-eabi/lib/thumb/libg.a(lib_a-svfiprintf.o)
 .rodata.zeroes.7257
                0x0000000000000000       0x10 /home/james/devkitPro/devkitARM/bin/../lib/gcc/arm-none-eabi/6.3.0/../../../../arm-none-eabi/lib/thumb/libg.a(lib_a-svfiprintf.o)
 .text          0x0000000000000000        0x0 /home/james/devkitPro/devkitARM/bin/../lib/gcc/arm-none-eabi/6.3.0/../../../../arm-none-eabi/lib/thumb/libg.a(lib_a-wbuf.o)
 .data          0x0000000000000000        0x0 /home/james/devkitPro/devkitARM/bin/../lib/gcc/arm-none-eabi/6.3.0/../../../../arm-none-eabi/lib/thumb/libg.a(lib_a-wbuf.o)
 .bss           0x0000000000000000        0x0 /home/james/devkitPro/devkitARM/bin/../lib/gcc/arm-none-eabi/6.3.0/../../../../arm-none-eabi/lib/thumb/libg.a(lib_a-wbuf.o)
 .text.__swbuf  0x0000000000000000       0x18 /home/james/devkitPro/devkitARM/bin/../lib/gcc/arm-none-eabi/6.3.0/../../../../arm-none-eabi/lib/thumb/libg.a(lib_a-wbuf.o)
 .text          0x0000000000000000        0x0 /home/james/devkitPro/devkitARM/bin/../lib/gcc/arm-none-eabi/6.3.0/../../../../arm-none-eabi/lib/thumb/libg.a(lib_a-wcsnrtombs.o)
 .data          0x0000000000000000        0x0 /home/james/devkitPro/devkitARM/bin/../lib/gcc/arm-none-eabi/6.3.0/../../../../arm-none-eabi/lib/thumb/libg.a(lib_a-wcsnrtombs.o)
 .bss           0x0000000000000000        0x0 /home/james/devkitPro/devkitARM/bin/../lib/gcc/arm-none-eabi/6.3.0/../../../../arm-none-eabi/lib/thumb/libg.a(lib_a-wcsnrtombs.o)
 .text.wcsnrtombs
                0x0000000000000000       0x4c /home/james/devkitPro/devkitARM/bin/../lib/gcc/arm-none-eabi/6.3.0/../../../../arm-none-eabi/lib/thumb/libg.a(lib_a-wcsnrtombs.o)
 .text          0x0000000000000000        0x0 /home/james/devkitPro/devkitARM/bin/../lib/gcc/arm-none-eabi/6.3.0/../../../../arm-none-eabi/lib/thumb/libg.a(lib_a-wctomb_r.o)
 .data          0x0000000000000000        0x0 /home/james/devkitPro/devkitARM/bin/../lib/gcc/arm-none-eabi/6.3.0/../../../../arm-none-eabi/lib/thumb/libg.a(lib_a-wctomb_r.o)
 .bss           0x0000000000000000        0x0 /home/james/devkitPro/devkitARM/bin/../lib/gcc/arm-none-eabi/6.3.0/../../../../arm-none-eabi/lib/thumb/libg.a(lib_a-wctomb_r.o)
 .text._wctomb_r
                0x0000000000000000       0x40 /home/james/devkitPro/devkitARM/bin/../lib/gcc/arm-none-eabi/6.3.0/../../../../arm-none-eabi/lib/thumb/libg.a(lib_a-wctomb_r.o)
 .text.__ascii_wctomb
                0x0000000000000000       0x1c /home/james/devkitPro/devkitARM/bin/../lib/gcc/arm-none-eabi/6.3.0/../../../../arm-none-eabi/lib/thumb/libg.a(lib_a-wctomb_r.o)
 .text.__sjis_wctomb
                0x0000000000000000       0x80 /home/james/devkitPro/devkitARM/bin/../lib/gcc/arm-none-eabi/6.3.0/../../../../arm-none-eabi/lib/thumb/libg.a(lib_a-wctomb_r.o)
 .text.__eucjp_wctomb
                0x0000000000000000       0x88 /home/james/devkitPro/devkitARM/bin/../lib/gcc/arm-none-eabi/6.3.0/../../../../arm-none-eabi/lib/thumb/libg.a(lib_a-wctomb_r.o)
 .text.__jis_wctomb
                0x0000000000000000       0x7c /home/james/devkitPro/devkitARM/bin/../lib/gcc/arm-none-eabi/6.3.0/../../../../arm-none-eabi/lib/thumb/libg.a(lib_a-wctomb_r.o)
 .text          0x0000000000000000        0x0 /home/james/devkitPro/devkitARM/bin/../lib/gcc/arm-none-eabi/6.3.0/../../../../arm-none-eabi/lib/thumb/libg.a(lib_a-callocr.o)
 .data          0x0000000000000000        0x0 /home/james/devkitPro/devkitARM/bin/../lib/gcc/arm-none-eabi/6.3.0/../../../../arm-none-eabi/lib/thumb/libg.a(lib_a-callocr.o)
 .bss           0x0000000000000000        0x0 /home/james/devkitPro/devkitARM/bin/../lib/gcc/arm-none-eabi/6.3.0/../../../../arm-none-eabi/lib/thumb/libg.a(lib_a-callocr.o)
 .text          0x0000000000000000        0x0 /home/james/devkitPro/devkitARM/bin/../lib/gcc/arm-none-eabi/6.3.0/../../../../arm-none-eabi/lib/thumb/libg.a(lib_a-ctype_.o)
 .data          0x0000000000000000        0x0 /home/james/devkitPro/devkitARM/bin/../lib/gcc/arm-none-eabi/6.3.0/../../../../arm-none-eabi/lib/thumb/libg.a(lib_a-ctype_.o)
 .bss           0x0000000000000000        0x0 /home/james/devkitPro/devkitARM/bin/../lib/gcc/arm-none-eabi/6.3.0/../../../../arm-none-eabi/lib/thumb/libg.a(lib_a-ctype_.o)
 .text.__set_ctype
                0x0000000000000000        0xc /home/james/devkitPro/devkitARM/bin/../lib/gcc/arm-none-eabi/6.3.0/../../../../arm-none-eabi/lib/thumb/libg.a(lib_a-ctype_.o)
 .text          0x0000000000000000        0x0 /home/james/devkitPro/devkitARM/bin/../lib/gcc/arm-none-eabi/6.3.0/../../../../arm-none-eabi/lib/thumb/libg.a(lib_a-fclose.o)
 .data          0x0000000000000000        0x0 /home/james/devkitPro/devkitARM/bin/../lib/gcc/arm-none-eabi/6.3.0/../../../../arm-none-eabi/lib/thumb/libg.a(lib_a-fclose.o)
 .bss           0x0000000000000000        0x0 /home/james/devkitPro/devkitARM/bin/../lib/gcc/arm-none-eabi/6.3.0/../../../../arm-none-eabi/lib/thumb/libg.a(lib_a-fclose.o)
 .text.fclose   0x0000000000000000       0x14 /home/james/devkitPro/devkitARM/bin/../lib/gcc/arm-none-eabi/6.3.0/../../../../arm-none-eabi/lib/thumb/libg.a(lib_a-fclose.o)
 .text          0x0000000000000000        0x0 /home/james/devkitPro/devkitARM/bin/../lib/gcc/arm-none-eabi/6.3.0/../../../../arm-none-eabi/lib/thumb/libg.a(lib_a-gdtoa-gethex.o)
 .data          0x0000000000000000        0x0 /home/james/devkitPro/devkitARM/bin/../lib/gcc/arm-none-eabi/6.3.0/../../../../arm-none-eabi/lib/thumb/libg.a(lib_a-gdtoa-gethex.o)
 .bss           0x0000000000000000        0x0 /home/james/devkitPro/devkitARM/bin/../lib/gcc/arm-none-eabi/6.3.0/../../../../arm-none-eabi/lib/thumb/libg.a(lib_a-gdtoa-gethex.o)
 .text          0x0000000000000000        0x0 /home/james/devkitPro/devkitARM/bin/../lib/gcc/arm-none-eabi/6.3.0/../../../../arm-none-eabi/lib/thumb/libg.a(lib_a-gdtoa-hexnan.o)
 .data          0x0000000000000000        0x0 /home/james/devkitPro/devkitARM/bin/../lib/gcc/arm-none-eabi/6.3.0/../../../../arm-none-eabi/lib/thumb/libg.a(lib_a-gdtoa-hexnan.o)
 .bss           0x0000000000000000        0x0 /home/james/devkitPro/devkitARM/bin/../lib/gcc/arm-none-eabi/6.3.0/../../../../arm-none-eabi/lib/thumb/libg.a(lib_a-gdtoa-hexnan.o)
 .text          0x0000000000000000        0x0 /home/james/devkitPro/devkitARM/bin/../lib/gcc/arm-none-eabi/6.3.0/../../../../arm-none-eabi/lib/thumb/libg.a(lib_a-getenv_r.o)
 .data          0x0000000000000000        0x0 /home/james/devkitPro/devkitARM/bin/../lib/gcc/arm-none-eabi/6.3.0/../../../../arm-none-eabi/lib/thumb/libg.a(lib_a-getenv_r.o)
 .bss           0x0000000000000000        0x0 /home/james/devkitPro/devkitARM/bin/../lib/gcc/arm-none-eabi/6.3.0/../../../../arm-none-eabi/lib/thumb/libg.a(lib_a-getenv_r.o)
 .text._findenv_r
                0x0000000000000000       0x98 /home/james/devkitPro/devkitARM/bin/../lib/gcc/arm-none-eabi/6.3.0/../../../../arm-none-eabi/lib/thumb/libg.a(lib_a-getenv_r.o)
 .text._getenv_r
                0x0000000000000000       0x10 /home/james/devkitPro/devkitARM/bin/../lib/gcc/arm-none-eabi/6.3.0/../../../../arm-none-eabi/lib/thumb/libg.a(lib_a-getenv_r.o)
 .comment       0x0000000000000000       0x23 /home/james/devkitPro/devkitARM/bin/../lib/gcc/arm-none-eabi/6.3.0/../../../../arm-none-eabi/lib/thumb/libg.a(lib_a-getenv_r.o)
 .ARM.attributes
                0x0000000000000000       0x30 /home/james/devkitPro/devkitARM/bin/../lib/gcc/arm-none-eabi/6.3.0/../../../../arm-none-eabi/lib/thumb/libg.a(lib_a-getenv_r.o)
 .text          0x0000000000000000        0x0 /home/james/devkitPro/devkitARM/bin/../lib/gcc/arm-none-eabi/6.3.0/../../../../arm-none-eabi/lib/thumb/libg.a(lib_a-environ.o)
 .data          0x0000000000000000        0x0 /home/james/devkitPro/devkitARM/bin/../lib/gcc/arm-none-eabi/6.3.0/../../../../arm-none-eabi/lib/thumb/libg.a(lib_a-environ.o)
 .bss           0x0000000000000000        0x0 /home/james/devkitPro/devkitARM/bin/../lib/gcc/arm-none-eabi/6.3.0/../../../../arm-none-eabi/lib/thumb/libg.a(lib_a-environ.o)
 .bss.initial_env
                0x0000000000000000        0x4 /home/james/devkitPro/devkitARM/bin/../lib/gcc/arm-none-eabi/6.3.0/../../../../arm-none-eabi/lib/thumb/libg.a(lib_a-environ.o)
 .data.environ  0x0000000000000000        0x4 /home/james/devkitPro/devkitARM/bin/../lib/gcc/arm-none-eabi/6.3.0/../../../../arm-none-eabi/lib/thumb/libg.a(lib_a-environ.o)
 .comment       0x0000000000000000       0x23 /home/james/devkitPro/devkitARM/bin/../lib/gcc/arm-none-eabi/6.3.0/../../../../arm-none-eabi/lib/thumb/libg.a(lib_a-environ.o)
 .ARM.attributes
                0x0000000000000000       0x30 /home/james/devkitPro/devkitARM/bin/../lib/gcc/arm-none-eabi/6.3.0/../../../../arm-none-eabi/lib/thumb/libg.a(lib_a-environ.o)
 .text          0x0000000000000000        0x0 /home/james/devkitPro/devkitARM/bin/../lib/gcc/arm-none-eabi/6.3.0/../../../../arm-none-eabi/lib/thumb/libg.a(lib_a-envlock.o)
 .data          0x0000000000000000        0x0 /home/james/devkitPro/devkitARM/bin/../lib/gcc/arm-none-eabi/6.3.0/../../../../arm-none-eabi/lib/thumb/libg.a(lib_a-envlock.o)
 .bss           0x0000000000000000        0x0 /home/james/devkitPro/devkitARM/bin/../lib/gcc/arm-none-eabi/6.3.0/../../../../arm-none-eabi/lib/thumb/libg.a(lib_a-envlock.o)
 .text.__env_lock
                0x0000000000000000       0x14 /home/james/devkitPro/devkitARM/bin/../lib/gcc/arm-none-eabi/6.3.0/../../../../arm-none-eabi/lib/thumb/libg.a(lib_a-envlock.o)
 .text.__env_unlock
                0x0000000000000000       0x14 /home/james/devkitPro/devkitARM/bin/../lib/gcc/arm-none-eabi/6.3.0/../../../../arm-none-eabi/lib/thumb/libg.a(lib_a-envlock.o)
 .data.__env_lock_object
                0x0000000000000000        0xc /home/james/devkitPro/devkitARM/bin/../lib/gcc/arm-none-eabi/6.3.0/../../../../arm-none-eabi/lib/thumb/libg.a(lib_a-envlock.o)
 .comment       0x0000000000000000       0x23 /home/james/devkitPro/devkitARM/bin/../lib/gcc/arm-none-eabi/6.3.0/../../../../arm-none-eabi/lib/thumb/libg.a(lib_a-envlock.o)
 .ARM.attributes
                0x0000000000000000       0x30 /home/james/devkitPro/devkitARM/bin/../lib/gcc/arm-none-eabi/6.3.0/../../../../arm-none-eabi/lib/thumb/libg.a(lib_a-envlock.o)
 .text          0x0000000000000000        0x0 /home/james/devkitPro/devkitARM/bin/../lib/gcc/arm-none-eabi/6.3.0/../../../../arm-none-eabi/lib/thumb/libsysbase.a(iosupport.o)
 .data          0x0000000000000000        0x0 /home/james/devkitPro/devkitARM/bin/../lib/gcc/arm-none-eabi/6.3.0/../../../../arm-none-eabi/lib/thumb/libsysbase.a(iosupport.o)
 .bss           0x0000000000000000        0x0 /home/james/devkitPro/devkitARM/bin/../lib/gcc/arm-none-eabi/6.3.0/../../../../arm-none-eabi/lib/thumb/libsysbase.a(iosupport.o)
 .text.setDefaultDevice
                0x0000000000000000       0x10 /home/james/devkitPro/devkitARM/bin/../lib/gcc/arm-none-eabi/6.3.0/../../../../arm-none-eabi/lib/thumb/libsysbase.a(iosupport.o)
 .text.FindDevice
                0x0000000000000000       0x94 /home/james/devkitPro/devkitARM/bin/../lib/gcc/arm-none-eabi/6.3.0/../../../../arm-none-eabi/lib/thumb/libsysbase.a(iosupport.o)
 .text.RemoveDevice
                0x0000000000000000       0x24 /home/james/devkitPro/devkitARM/bin/../lib/gcc/arm-none-eabi/6.3.0/../../../../arm-none-eabi/lib/thumb/libsysbase.a(iosupport.o)
 .text.AddDevice
                0x0000000000000000       0x78 /home/james/devkitPro/devkitARM/bin/../lib/gcc/arm-none-eabi/6.3.0/../../../../arm-none-eabi/lib/thumb/libsysbase.a(iosupport.o)
 .text.GetDeviceOpTab
                0x0000000000000000       0x20 /home/james/devkitPro/devkitARM/bin/../lib/gcc/arm-none-eabi/6.3.0/../../../../arm-none-eabi/lib/thumb/libsysbase.a(iosupport.o)
 .data.defaultDevice
                0x0000000000000000        0x4 /home/james/devkitPro/devkitARM/bin/../lib/gcc/arm-none-eabi/6.3.0/../../../../arm-none-eabi/lib/thumb/libsysbase.a(iosupport.o)
 .text          0x0000000000000000        0x0 /home/james/devkitPro/devkitARM/bin/../lib/gcc/arm-none-eabi/6.3.0/../../../../arm-none-eabi/lib/thumb/libsysbase.a(close.o)
 .data          0x0000000000000000        0x0 /home/james/devkitPro/devkitARM/bin/../lib/gcc/arm-none-eabi/6.3.0/../../../../arm-none-eabi/lib/thumb/libsysbase.a(close.o)
 .bss           0x0000000000000000        0x0 /home/james/devkitPro/devkitARM/bin/../lib/gcc/arm-none-eabi/6.3.0/../../../../arm-none-eabi/lib/thumb/libsysbase.a(close.o)
 .text          0x0000000000000000        0x0 /home/james/devkitPro/devkitARM/bin/../lib/gcc/arm-none-eabi/6.3.0/../../../../arm-none-eabi/lib/thumb/libsysbase.a(fstat.o)
 .data          0x0000000000000000        0x0 /home/james/devkitPro/devkitARM/bin/../lib/gcc/arm-none-eabi/6.3.0/../../../../arm-none-eabi/lib/thumb/libsysbase.a(fstat.o)
 .bss           0x0000000000000000        0x0 /home/james/devkitPro/devkitARM/bin/../lib/gcc/arm-none-eabi/6.3.0/../../../../arm-none-eabi/lib/thumb/libsysbase.a(fstat.o)
 .text          0x0000000000000000        0x0 /home/james/devkitPro/devkitARM/bin/../lib/gcc/arm-none-eabi/6.3.0/../../../../arm-none-eabi/lib/thumb/libsysbase.a(isatty.o)
 .data          0x0000000000000000        0x0 /home/james/devkitPro/devkitARM/bin/../lib/gcc/arm-none-eabi/6.3.0/../../../../arm-none-eabi/lib/thumb/libsysbase.a(isatty.o)
 .bss           0x0000000000000000        0x0 /home/james/devkitPro/devkitARM/bin/../lib/gcc/arm-none-eabi/6.3.0/../../../../arm-none-eabi/lib/thumb/libsysbase.a(isatty.o)
 .text          0x0000000000000000        0x0 /home/james/devkitPro/devkitARM/bin/../lib/gcc/arm-none-eabi/6.3.0/../../../../arm-none-eabi/lib/thumb/libsysbase.a(lseek.o)
 .data          0x0000000000000000        0x0 /home/james/devkitPro/devkitARM/bin/../lib/gcc/arm-none-eabi/6.3.0/../../../../arm-none-eabi/lib/thumb/libsysbase.a(lseek.o)
 .bss           0x0000000000000000        0x0 /home/james/devkitPro/devkitARM/bin/../lib/gcc/arm-none-eabi/6.3.0/../../../../arm-none-eabi/lib/thumb/libsysbase.a(lseek.o)
 .text          0x0000000000000000        0x0 /home/james/devkitPro/devkitARM/bin/../lib/gcc/arm-none-eabi/6.3.0/../../../../arm-none-eabi/lib/thumb/libsysbase.a(read.o)
 .data          0x0000000000000000        0x0 /home/james/devkitPro/devkitARM/bin/../lib/gcc/arm-none-eabi/6.3.0/../../../../arm-none-eabi/lib/thumb/libsysbase.a(read.o)
 .bss           0x0000000000000000        0x0 /home/james/devkitPro/devkitARM/bin/../lib/gcc/arm-none-eabi/6.3.0/../../../../arm-none-eabi/lib/thumb/libsysbase.a(read.o)
 .text          0x0000000000000000        0x0 /home/james/devkitPro/devkitARM/bin/../lib/gcc/arm-none-eabi/6.3.0/../../../../arm-none-eabi/lib/thumb/libsysbase.a(sbrk.o)
 .data          0x0000000000000000        0x0 /home/james/devkitPro/devkitARM/bin/../lib/gcc/arm-none-eabi/6.3.0/../../../../arm-none-eabi/lib/thumb/libsysbase.a(sbrk.o)
 .bss           0x0000000000000000        0x0 /home/james/devkitPro/devkitARM/bin/../lib/gcc/arm-none-eabi/6.3.0/../../../../arm-none-eabi/lib/thumb/libsysbase.a(sbrk.o)
 .text          0x0000000000000000        0x0 /home/james/devkitPro/devkitARM/bin/../lib/gcc/arm-none-eabi/6.3.0/../../../../arm-none-eabi/lib/thumb/libsysbase.a(write.o)
 .data          0x0000000000000000        0x0 /home/james/devkitPro/devkitARM/bin/../lib/gcc/arm-none-eabi/6.3.0/../../../../arm-none-eabi/lib/thumb/libsysbase.a(write.o)
 .bss           0x0000000000000000        0x0 /home/james/devkitPro/devkitARM/bin/../lib/gcc/arm-none-eabi/6.3.0/../../../../arm-none-eabi/lib/thumb/libsysbase.a(write.o)
 .text          0x0000000000000000        0x0 /home/james/devkitPro/devkitARM/bin/../lib/gcc/arm-none-eabi/6.3.0/../../../../arm-none-eabi/lib/thumb/libsysbase.a(malloc_vars.o)
 .data          0x0000000000000000        0x0 /home/james/devkitPro/devkitARM/bin/../lib/gcc/arm-none-eabi/6.3.0/../../../../arm-none-eabi/lib/thumb/libsysbase.a(malloc_vars.o)
 .bss           0x0000000000000000        0x0 /home/james/devkitPro/devkitARM/bin/../lib/gcc/arm-none-eabi/6.3.0/../../../../arm-none-eabi/lib/thumb/libsysbase.a(malloc_vars.o)
 .text          0x0000000000000000        0x0 /home/james/devkitPro/devkitARM/bin/../lib/gcc/arm-none-eabi/6.3.0/../../../../arm-none-eabi/lib/thumb/libsysbase.a(build_argv.o)
 .data          0x0000000000000000        0x0 /home/james/devkitPro/devkitARM/bin/../lib/gcc/arm-none-eabi/6.3.0/../../../../arm-none-eabi/lib/thumb/libsysbase.a(build_argv.o)
 .bss           0x0000000000000000        0x0 /home/james/devkitPro/devkitARM/bin/../lib/gcc/arm-none-eabi/6.3.0/../../../../arm-none-eabi/lib/thumb/libsysbase.a(build_argv.o)
 .text          0x0000000000000000        0x0 /home/james/devkitPro/devkitARM/bin/../lib/gcc/arm-none-eabi/6.3.0/../../../../arm-none-eabi/lib/thumb/libsysbase.a(flock.o)
 .data          0x0000000000000000        0x0 /home/james/devkitPro/devkitARM/bin/../lib/gcc/arm-none-eabi/6.3.0/../../../../arm-none-eabi/lib/thumb/libsysbase.a(flock.o)
 .bss           0x0000000000000000        0x0 /home/james/devkitPro/devkitARM/bin/../lib/gcc/arm-none-eabi/6.3.0/../../../../arm-none-eabi/lib/thumb/libsysbase.a(flock.o)
 .text          0x0000000000000000        0x0 /home/james/devkitPro/devkitARM/bin/../lib/gcc/arm-none-eabi/6.3.0/../../../../arm-none-eabi/lib/thumb/libsysbase.a(syscall_support.o)
 .data          0x0000000000000000        0x0 /home/james/devkitPro/devkitARM/bin/../lib/gcc/arm-none-eabi/6.3.0/../../../../arm-none-eabi/lib/thumb/libsysbase.a(syscall_support.o)
 .bss           0x0000000000000000        0x0 /home/james/devkitPro/devkitARM/bin/../lib/gcc/arm-none-eabi/6.3.0/../../../../arm-none-eabi/lib/thumb/libsysbase.a(syscall_support.o)
 .text.__libc_lock_init
                0x0000000000000000       0x1c /home/james/devkitPro/devkitARM/bin/../lib/gcc/arm-none-eabi/6.3.0/../../../../arm-none-eabi/lib/thumb/libsysbase.a(syscall_support.o)
 .text.__libc_lock_try_acquire
                0x0000000000000000       0x24 /home/james/devkitPro/devkitARM/bin/../lib/gcc/arm-none-eabi/6.3.0/../../../../arm-none-eabi/lib/thumb/libsysbase.a(syscall_support.o)
 .text.__libc_lock_close
                0x0000000000000000       0x1c /home/james/devkitPro/devkitARM/bin/../lib/gcc/arm-none-eabi/6.3.0/../../../../arm-none-eabi/lib/thumb/libsysbase.a(syscall_support.o)
 .text.__libc_lock_try_acquire_recursive
                0x0000000000000000       0x24 /home/james/devkitPro/devkitARM/bin/../lib/gcc/arm-none-eabi/6.3.0/../../../../arm-none-eabi/lib/thumb/libsysbase.a(syscall_support.o)
 .text          0x0000000000000000        0x0 /home/james/devkitPro/devkitARM/bin/../lib/gcc/arm-none-eabi/6.3.0/../../../../arm-none-eabi/lib/thumb/libsysbase.a(handle_manager.o)
 .data          0x0000000000000000        0x0 /home/james/devkitPro/devkitARM/bin/../lib/gcc/arm-none-eabi/6.3.0/../../../../arm-none-eabi/lib/thumb/libsysbase.a(handle_manager.o)
 .bss           0x0000000000000000        0x0 /home/james/devkitPro/devkitARM/bin/../lib/gcc/arm-none-eabi/6.3.0/../../../../arm-none-eabi/lib/thumb/libsysbase.a(handle_manager.o)
 .text.__alloc_handle
                0x0000000000000000       0x80 /home/james/devkitPro/devkitARM/bin/../lib/gcc/arm-none-eabi/6.3.0/../../../../arm-none-eabi/lib/thumb/libsysbase.a(handle_manager.o)
 .text.dup      0x0000000000000000       0x68 /home/james/devkitPro/devkitARM/bin/../lib/gcc/arm-none-eabi/6.3.0/../../../../arm-none-eabi/lib/thumb/libsysbase.a(handle_manager.o)
 .text.dup2     0x0000000000000000       0xa8 /home/james/devkitPro/devkitARM/bin/../lib/gcc/arm-none-eabi/6.3.0/../../../../arm-none-eabi/lib/thumb/libsysbase.a(handle_manager.o)
 .text          0x0000000000000000        0x0 /home/james/devkitPro/devkitARM/bin/../lib/gcc/arm-none-eabi/6.3.0/../../../../arm-none-eabi/lib/thumb/libsysbase.a(getreent.o)
 .data          0x0000000000000000        0x0 /home/james/devkitPro/devkitARM/bin/../lib/gcc/arm-none-eabi/6.3.0/../../../../arm-none-eabi/lib/thumb/libsysbase.a(getreent.o)
 .bss           0x0000000000000000        0x0 /home/james/devkitPro/devkitARM/bin/../lib/gcc/arm-none-eabi/6.3.0/../../../../arm-none-eabi/lib/thumb/libsysbase.a(getreent.o)
 .data          0x0000000000000000        0x0 /home/james/devkitPro/devkitARM/bin/../lib/gcc/arm-none-eabi/6.3.0/thumb/libgcc.a(_arm_addsubdf3.o)
 .bss           0x0000000000000000        0x0 /home/james/devkitPro/devkitARM/bin/../lib/gcc/arm-none-eabi/6.3.0/thumb/libgcc.a(_arm_addsubdf3.o)
 .data          0x0000000000000000        0x0 /home/james/devkitPro/devkitARM/bin/../lib/gcc/arm-none-eabi/6.3.0/thumb/libgcc.a(_arm_muldivdf3.o)
 .bss           0x0000000000000000        0x0 /home/james/devkitPro/devkitARM/bin/../lib/gcc/arm-none-eabi/6.3.0/thumb/libgcc.a(_arm_muldivdf3.o)
 .data          0x0000000000000000        0x0 /home/james/devkitPro/devkitARM/bin/../lib/gcc/arm-none-eabi/6.3.0/thumb/libgcc.a(_arm_cmpdf2.o)
 .bss           0x0000000000000000        0x0 /home/james/devkitPro/devkitARM/bin/../lib/gcc/arm-none-eabi/6.3.0/thumb/libgcc.a(_arm_cmpdf2.o)
 .data          0x0000000000000000        0x0 /home/james/devkitPro/devkitARM/bin/../lib/gcc/arm-none-eabi/6.3.0/thumb/libgcc.a(_arm_unorddf2.o)
 .bss           0x0000000000000000        0x0 /home/james/devkitPro/devkitARM/bin/../lib/gcc/arm-none-eabi/6.3.0/thumb/libgcc.a(_arm_unorddf2.o)
 .data          0x0000000000000000        0x0 /home/james/devkitPro/devkitARM/bin/../lib/gcc/arm-none-eabi/6.3.0/thumb/libgcc.a(_arm_fixdfsi.o)
 .bss           0x0000000000000000        0x0 /home/james/devkitPro/devkitARM/bin/../lib/gcc/arm-none-eabi/6.3.0/thumb/libgcc.a(_arm_fixdfsi.o)
 .data          0x0000000000000000        0x0 /home/james/devkitPro/devkitARM/bin/../lib/gcc/arm-none-eabi/6.3.0/thumb/libgcc.a(_arm_fixunsdfsi.o)
 .bss           0x0000000000000000        0x0 /home/james/devkitPro/devkitARM/bin/../lib/gcc/arm-none-eabi/6.3.0/thumb/libgcc.a(_arm_fixunsdfsi.o)
 .data          0x0000000000000000        0x0 /home/james/devkitPro/devkitARM/bin/../lib/gcc/arm-none-eabi/6.3.0/thumb/libgcc.a(_arm_truncdfsf2.o)
 .bss           0x0000000000000000        0x0 /home/james/devkitPro/devkitARM/bin/../lib/gcc/arm-none-eabi/6.3.0/thumb/libgcc.a(_arm_truncdfsf2.o)
 .text          0x0000000000000000      0x114 /home/james/devkitPro/devkitARM/bin/../lib/gcc/arm-none-eabi/6.3.0/thumb/libgcc.a(_arm_cmpsf2.o)
 .data          0x0000000000000000        0x0 /home/james/devkitPro/devkitARM/bin/../lib/gcc/arm-none-eabi/6.3.0/thumb/libgcc.a(_arm_cmpsf2.o)
 .bss           0x0000000000000000        0x0 /home/james/devkitPro/devkitARM/bin/../lib/gcc/arm-none-eabi/6.3.0/thumb/libgcc.a(_arm_cmpsf2.o)
 .ARM.attributes
                0x0000000000000000       0x18 /home/james/devkitPro/devkitARM/bin/../lib/gcc/arm-none-eabi/6.3.0/thumb/libgcc.a(_arm_cmpsf2.o)
 .text          0x0000000000000000       0x38 /home/james/devkitPro/devkitARM/bin/../lib/gcc/arm-none-eabi/6.3.0/thumb/libgcc.a(_arm_unordsf2.o)
 .data          0x0000000000000000        0x0 /home/james/devkitPro/devkitARM/bin/../lib/gcc/arm-none-eabi/6.3.0/thumb/libgcc.a(_arm_unordsf2.o)
 .bss           0x0000000000000000        0x0 /home/james/devkitPro/devkitARM/bin/../lib/gcc/arm-none-eabi/6.3.0/thumb/libgcc.a(_arm_unordsf2.o)
 .ARM.attributes
                0x0000000000000000       0x18 /home/james/devkitPro/devkitARM/bin/../lib/gcc/arm-none-eabi/6.3.0/thumb/libgcc.a(_arm_unordsf2.o)
 .data          0x0000000000000000        0x0 /home/james/devkitPro/devkitARM/bin/../lib/gcc/arm-none-eabi/6.3.0/thumb/libgcc.a(_aeabi_uldivmod.o)
 .bss           0x0000000000000000        0x0 /home/james/devkitPro/devkitARM/bin/../lib/gcc/arm-none-eabi/6.3.0/thumb/libgcc.a(_aeabi_uldivmod.o)
 .text          0x0000000000000000        0x0 /home/james/devkitPro/devkitARM/bin/../lib/gcc/arm-none-eabi/6.3.0/thumb/libgcc.a(_muldi3.o)
 .data          0x0000000000000000        0x0 /home/james/devkitPro/devkitARM/bin/../lib/gcc/arm-none-eabi/6.3.0/thumb/libgcc.a(_muldi3.o)
 .bss           0x0000000000000000        0x0 /home/james/devkitPro/devkitARM/bin/../lib/gcc/arm-none-eabi/6.3.0/thumb/libgcc.a(_muldi3.o)
 .text          0x0000000000000000        0x0 /home/james/devkitPro/devkitARM/bin/../lib/gcc/arm-none-eabi/6.3.0/thumb/libgcc.a(_udivmoddi4.o)
 .data          0x0000000000000000        0x0 /home/james/devkitPro/devkitARM/bin/../lib/gcc/arm-none-eabi/6.3.0/thumb/libgcc.a(_udivmoddi4.o)
 .bss           0x0000000000000000        0x0 /home/james/devkitPro/devkitARM/bin/../lib/gcc/arm-none-eabi/6.3.0/thumb/libgcc.a(_udivmoddi4.o)
 .data          0x0000000000000000        0x0 /home/james/devkitPro/devkitARM/bin/../lib/gcc/arm-none-eabi/6.3.0/thumb/libgcc.a(_clzdi2.o)
 .bss           0x0000000000000000        0x0 /home/james/devkitPro/devkitARM/bin/../lib/gcc/arm-none-eabi/6.3.0/thumb/libgcc.a(_clzdi2.o)
 .data          0x0000000000000000        0x0 /home/james/devkitPro/devkitARM/bin/../lib/gcc/arm-none-eabi/6.3.0/thumb/libgcc.a(_clzsi2.o)
 .bss           0x0000000000000000        0x0 /home/james/devkitPro/devkitARM/bin/../lib/gcc/arm-none-eabi/6.3.0/thumb/libgcc.a(_clzsi2.o)
 .text          0x0000000000000000        0x0 /home/james/devkitPro/devkitARM/bin/../lib/gcc/arm-none-eabi/6.3.0/thumb/crtend.o
 .data          0x0000000000000000        0x0 /home/james/devkitPro/devkitARM/bin/../lib/gcc/arm-none-eabi/6.3.0/thumb/crtend.o
 .bss           0x0000000000000000        0x0 /home/james/devkitPro/devkitARM/bin/../lib/gcc/arm-none-eabi/6.3.0/thumb/crtend.o
 .text          0x0000000000000000        0x0 /home/james/devkitPro/devkitARM/bin/../lib/gcc/arm-none-eabi/6.3.0/thumb/crtn.o
 .data          0x0000000000000000        0x0 /home/james/devkitPro/devkitARM/bin/../lib/gcc/arm-none-eabi/6.3.0/thumb/crtn.o
 .bss           0x0000000000000000        0x0 /home/james/devkitPro/devkitARM/bin/../lib/gcc/arm-none-eabi/6.3.0/thumb/crtn.o

Memory Configuration

Name             Origin             Length             Attributes
ewram            0x0000000002000000 0x0000000000380000
dtcm             0x000000000b000000 0x0000000000004000
vectors          0x0000000001000000 0x0000000000000100
itcm             0x0000000001000100 0x0000000000007f00
*default*        0x0000000000000000 0xffffffffffffffff

Linker script and memory map

                0x0000000002380000                __ewram_end = (ORIGIN (ewram) + LENGTH (ewram))
                0x0000000002380000                __eheap_end = (ORIGIN (ewram) + LENGTH (ewram))
                0x000000000b004000                __dtcm_top = (ORIGIN (dtcm) + LENGTH (dtcm))
                0x000000000b003ff8                __irq_flags = (__dtcm_top - 0x8)
                0x000000000b003ffc                __irq_vector = (__dtcm_top - 0x4)
                0x000000000b003f00                __sp_svc = (__dtcm_top - 0x100)
                0x000000000b003e00                __sp_irq = (__sp_svc - 0x100)
                0x000000000b003d00                __sp_usr = (__sp_irq - 0x100)

.secure         0x0000000002000000      0x800
 *(.secure)
 .secure        0x0000000002000000      0x800 /home/james/devkitPro/libnds/lib/libnds9.a(securearea.o)
                0x0000000002000000                __secure_area__

.crt0           0x0000000002000800      0x300
                0x0000000002000800                __text_start = .
 *(.crt0)
 .crt0          0x0000000002000800      0x300 /home/james/devkitPro/devkitARM/bin/../lib/gcc/arm-none-eabi/6.3.0/../../../../arm-none-eabi/lib/thumb/ds_arm9_crt0.o
                0x0000000002000800                _start
                0x0000000002000b00                . = ALIGN (0x4)

.plt
 *(.plt)

.init           0x0000000002000b00        0xc
 *(SORT(.init))
 .init          0x0000000002000b00        0x4 /home/james/devkitPro/devkitARM/bin/../lib/gcc/arm-none-eabi/6.3.0/thumb/crti.o
                0x0000000002000b00                _init
 .init          0x0000000002000b04        0x8 /home/james/devkitPro/devkitARM/bin/../lib/gcc/arm-none-eabi/6.3.0/thumb/crtn.o

.text           0x0000000002000b10    0x18518
 *(EXCLUDE_FILE(*.twl* *.vectors* *.itcm*) .text)
 .text          0x0000000002000b10      0x548 template.o
                0x0000000002000b10                OnKeyPressed
                0x0000000002000b24                findAP
                0x0000000002000c40                Wifi_init_and_connect
                0x0000000002000d80                SelectIPandPort
                0x0000000002000e90                setup
                0x0000000002000f3c                sendStatus
                0x000000000200103c                toggleCamera
 .text          0x0000000002001058       0x5c /home/james/devkitPro/libnds/lib/libdswifi9.a(spinlock.o)
                0x0000000002001058                SLasm_Acquire
                0x000000000200108c                SLasm_Release
 .text          0x00000000020010b4       0x14 /home/james/devkitPro/devkitARM/bin/../lib/gcc/arm-none-eabi/6.3.0/thumb/libgcc.a(_thumb1_case_uqi.o)
                0x00000000020010b4                __gnu_thumb1_case_uqi
 .text          0x00000000020010c8       0x14 /home/james/devkitPro/devkitARM/bin/../lib/gcc/arm-none-eabi/6.3.0/thumb/libgcc.a(_thumb1_case_uhi.o)
                0x00000000020010c8                __gnu_thumb1_case_uhi
 .text          0x00000000020010dc      0x11c /home/james/devkitPro/devkitARM/bin/../lib/gcc/arm-none-eabi/6.3.0/thumb/libgcc.a(_udivsi3.o)
                0x00000000020010dc                __udivsi3
                0x00000000020010dc                __aeabi_uidiv
                0x00000000020011d8                __aeabi_uidivmod
 .text          0x00000000020011f8      0x150 /home/james/devkitPro/devkitARM/bin/../lib/gcc/arm-none-eabi/6.3.0/thumb/libgcc.a(_divsi3.o)
                0x00000000020011f8                __aeabi_idiv
                0x00000000020011f8                __divsi3
                0x0000000002001328                __aeabi_idivmod
 .text          0x0000000002001348        0x4 /home/james/devkitPro/devkitARM/bin/../lib/gcc/arm-none-eabi/6.3.0/thumb/libgcc.a(_dvmd_tls.o)
                0x0000000002001348                __aeabi_ldiv0
                0x0000000002001348                __aeabi_idiv0
 .text          0x000000000200134c      0x224 /home/james/devkitPro/devkitARM/bin/../lib/gcc/arm-none-eabi/6.3.0/../../../../arm-none-eabi/lib/thumb/libg.a(lib_a-strcmp.o)
                0x000000000200134c                strcmp
 .text          0x0000000002001570      0x41c /home/james/devkitPro/devkitARM/bin/../lib/gcc/arm-none-eabi/6.3.0/thumb/libgcc.a(_arm_addsubdf3.o)
                0x0000000002001570                __aeabi_drsub
                0x0000000002001578                __aeabi_dsub
                0x0000000002001578                __subdf3
                0x000000000200157c                __adddf3
                0x000000000200157c                __aeabi_dadd
                0x000000000200188c                __aeabi_ui2d
                0x000000000200188c                __floatunsidf
                0x00000000020018b0                __floatsidf
                0x00000000020018b0                __aeabi_i2d
                0x00000000020018d8                __extendsfdf2
                0x00000000020018d8                __aeabi_f2d
                0x0000000002001918                __aeabi_ul2d
                0x0000000002001918                __floatundidf
                0x000000000200192c                __floatdidf
                0x000000000200192c                __aeabi_l2d
 .text          0x000000000200198c      0x49c /home/james/devkitPro/devkitARM/bin/../lib/gcc/arm-none-eabi/6.3.0/thumb/libgcc.a(_arm_muldivdf3.o)
                0x000000000200198c                __aeabi_dmul
                0x000000000200198c                __muldf3
                0x0000000002001c1c                __aeabi_ddiv
                0x0000000002001c1c                __divdf3
 .text          0x0000000002001e28      0x144 /home/james/devkitPro/devkitARM/bin/../lib/gcc/arm-none-eabi/6.3.0/thumb/libgcc.a(_arm_cmpdf2.o)
                0x0000000002001e28                __gtdf2
                0x0000000002001e28                __gedf2
                0x0000000002001e30                __ltdf2
                0x0000000002001e30                __ledf2
                0x0000000002001e38                __cmpdf2
                0x0000000002001e38                __eqdf2
                0x0000000002001e38                __nedf2
                0x0000000002001ec0                __aeabi_cdrcmple
                0x0000000002001edc                __aeabi_cdcmple
                0x0000000002001edc                __aeabi_cdcmpeq
                0x0000000002001ef4                __aeabi_dcmpeq
                0x0000000002001f0c                __aeabi_dcmplt
                0x0000000002001f24                __aeabi_dcmple
                0x0000000002001f3c                __aeabi_dcmpge
                0x0000000002001f54                __aeabi_dcmpgt
 .text          0x0000000002001f6c       0x38 /home/james/devkitPro/devkitARM/bin/../lib/gcc/arm-none-eabi/6.3.0/thumb/libgcc.a(_arm_unorddf2.o)
                0x0000000002001f6c                __aeabi_dcmpun
                0x0000000002001f6c                __unorddf2
 .text          0x0000000002001fa4       0x5c /home/james/devkitPro/devkitARM/bin/../lib/gcc/arm-none-eabi/6.3.0/thumb/libgcc.a(_arm_fixdfsi.o)
                0x0000000002001fa4                __fixdfsi
                0x0000000002001fa4                __aeabi_d2iz
 .text          0x0000000002002000       0x54 /home/james/devkitPro/devkitARM/bin/../lib/gcc/arm-none-eabi/6.3.0/thumb/libgcc.a(_arm_fixunsdfsi.o)
                0x0000000002002000                __fixunsdfsi
                0x0000000002002000                __aeabi_d2uiz
 .text          0x0000000002002054       0xa0 /home/james/devkitPro/devkitARM/bin/../lib/gcc/arm-none-eabi/6.3.0/thumb/libgcc.a(_arm_truncdfsf2.o)
                0x0000000002002054                __aeabi_d2f
                0x0000000002002054                __truncdfsf2
 .text          0x00000000020020f4       0x3c /home/james/devkitPro/devkitARM/bin/../lib/gcc/arm-none-eabi/6.3.0/thumb/libgcc.a(_aeabi_uldivmod.o)
                0x00000000020020f4                __aeabi_uldivmod
 .text          0x0000000002002130       0x28 /home/james/devkitPro/devkitARM/bin/../lib/gcc/arm-none-eabi/6.3.0/thumb/libgcc.a(_clzdi2.o)
                0x0000000002002130                __clzdi2
 .text          0x0000000002002158       0x48 /home/james/devkitPro/devkitARM/bin/../lib/gcc/arm-none-eabi/6.3.0/thumb/libgcc.a(_clzsi2.o)
                0x0000000002002158                __clzsi2
 *(EXCLUDE_FILE(*.twl* *.vectors* *.itcm*) .stub)
 *(EXCLUDE_FILE(*.twl* *.vectors* *.itcm*) .text.*)
 .text.deregister_tm_clones
                0x00000000020021a0       0x30 /home/james/devkitPro/devkitARM/bin/../lib/gcc/arm-none-eabi/6.3.0/thumb/crtbegin.o
 .text.register_tm_clones
                0x00000000020021d0       0x34 /home/james/devkitPro/devkitARM/bin/../lib/gcc/arm-none-eabi/6.3.0/thumb/crtbegin.o
 .text.__do_global_dtors_aux
                0x0000000002002204       0x30 /home/james/devkitPro/devkitARM/bin/../lib/gcc/arm-none-eabi/6.3.0/thumb/crtbegin.o
 .text.frame_dummy
                0x0000000002002234       0x48 /home/james/devkitPro/devkitARM/bin/../lib/gcc/arm-none-eabi/6.3.0/thumb/crtbegin.o
 .text.startup  0x000000000200227c      0x3a8 template.o
                0x000000000200227c                main
 .text.Wifi_Interface_Init
                0x0000000002002624       0x4c /home/james/devkitPro/libnds/lib/libdswifi9.a(wifi_arm9.o)
                0x0000000002002624                Wifi_Interface_Init
 .text.arm9_synctoarm7
                0x0000000002002670        0xc /home/james/devkitPro/libnds/lib/libdswifi9.a(wifi_arm9.o)
                0x0000000002002670                arm9_synctoarm7
 .text.sgIP_IntrWaitEvent
                0x000000000200267c        0x2 /home/james/devkitPro/libnds/lib/libdswifi9.a(wifi_arm9.o)
                0x000000000200267c                sgIP_IntrWaitEvent
 *fill*         0x000000000200267e        0x2 ff
 .text.wHeapAllocInit
                0x0000000002002680       0x2c /home/james/devkitPro/libnds/lib/libdswifi9.a(wifi_arm9.o)
                0x0000000002002680                wHeapAllocInit
 .text.wHeapAlloc
                0x00000000020026ac       0xa4 /home/james/devkitPro/libnds/lib/libdswifi9.a(wifi_arm9.o)
                0x00000000020026ac                wHeapAlloc
 .text.wHeapFree
                0x0000000002002750       0x1c /home/james/devkitPro/libnds/lib/libdswifi9.a(wifi_arm9.o)
                0x0000000002002750                wHeapFree
 .text.sgIP_malloc
                0x000000000200276c        0x8 /home/james/devkitPro/libnds/lib/libdswifi9.a(wifi_arm9.o)
                0x000000000200276c                sgIP_malloc
 .text.sgIP_free
                0x0000000002002774        0x8 /home/james/devkitPro/libnds/lib/libdswifi9.a(wifi_arm9.o)
                0x0000000002002774                sgIP_free
 .text.erasemem
                0x000000000200277c       0x14 /home/james/devkitPro/libnds/lib/libdswifi9.a(wifi_arm9.o)
                0x000000000200277c                erasemem
 .text.Wifi_CmpMacAddr
                0x0000000002002790       0x22 /home/james/devkitPro/libnds/lib/libdswifi9.a(wifi_arm9.o)
                0x0000000002002790                Wifi_CmpMacAddr
 *fill*         0x00000000020027b2        0x2 ff
 .text.Wifi_TxBufferWordsAvailable
                0x00000000020027b4       0x28 /home/james/devkitPro/libnds/lib/libdswifi9.a(wifi_arm9.o)
                0x00000000020027b4                Wifi_TxBufferWordsAvailable
 .text.Wifi_TxBufferWrite
                0x00000000020027dc       0x4c /home/james/devkitPro/libnds/lib/libdswifi9.a(wifi_arm9.o)
                0x00000000020027dc                Wifi_TxBufferWrite
 .text.Wifi_TransmitFunction
                0x0000000002002828      0x210 /home/james/devkitPro/libnds/lib/libdswifi9.a(wifi_arm9.o)
                0x0000000002002828                Wifi_TransmitFunction
 .text.Wifi_RxRawReadPacket
                0x0000000002002a38       0x68 /home/james/devkitPro/libnds/lib/libdswifi9.a(wifi_arm9.o)
                0x0000000002002a38                Wifi_RxRawReadPacket
 .text.Wifi_RxReadOffset
                0x0000000002002aa0       0x2c /home/james/devkitPro/libnds/lib/libdswifi9.a(wifi_arm9.o)
                0x0000000002002aa0                Wifi_RxReadOffset
 .text.Wifi_ScanMode
                0x0000000002002acc       0x18 /home/james/devkitPro/libnds/lib/libdswifi9.a(wifi_arm9.o)
                0x0000000002002acc                Wifi_ScanMode
 .text.Wifi_GetNumAP
                0x0000000002002ae4       0x28 /home/james/devkitPro/libnds/lib/libdswifi9.a(wifi_arm9.o)
                0x0000000002002ae4                Wifi_GetNumAP
 .text.Wifi_GetAPData
                0x0000000002002b0c       0x88 /home/james/devkitPro/libnds/lib/libdswifi9.a(wifi_arm9.o)
                0x0000000002002b0c                Wifi_GetAPData
 .text.Wifi_FindMatchingAP
                0x0000000002002b94       0xc0 /home/james/devkitPro/libnds/lib/libdswifi9.a(wifi_arm9.o)
                0x0000000002002b94                Wifi_FindMatchingAP
 .text.Wifi_AutoConnect
                0x0000000002002c54       0x2c /home/james/devkitPro/libnds/lib/libdswifi9.a(wifi_arm9.o)
                0x0000000002002c54                Wifi_AutoConnect
 .text.Wifi_DisconnectAP
                0x0000000002002c80       0x2c /home/james/devkitPro/libnds/lib/libdswifi9.a(wifi_arm9.o)
                0x0000000002002c80                Wifi_DisconnectAP
 .text.Wifi_ConnectAP
                0x0000000002002cac      0x10c /home/james/devkitPro/libnds/lib/libdswifi9.a(wifi_arm9.o)
                0x0000000002002cac                Wifi_ConnectAP
 .text.Wifi_Init
                0x0000000002002db8       0x7c /home/james/devkitPro/libnds/lib/libdswifi9.a(wifi_arm9.o)
                0x0000000002002db8                Wifi_Init
 .text.Wifi_CheckInit
                0x0000000002002e34       0x20 /home/james/devkitPro/libnds/lib/libdswifi9.a(wifi_arm9.o)
                0x0000000002002e34                Wifi_CheckInit
 .text.Wifi_Update
                0x0000000002002e54      0x240 /home/james/devkitPro/libnds/lib/libdswifi9.a(wifi_arm9.o)
                0x0000000002002e54                Wifi_Update
 .text.Wifi_Timer
                0x0000000002003094       0x10 /home/james/devkitPro/libnds/lib/libdswifi9.a(wifi_arm9.o)
                0x0000000002003094                Wifi_Timer
 .text.Timer_50ms
                0x00000000020030a4        0xa /home/james/devkitPro/libnds/lib/libdswifi9.a(wifi_arm9.o)
                0x00000000020030a4                Timer_50ms
 *fill*         0x00000000020030ae        0x2 ff
 .text.Wifi_GetIP
                0x00000000020030b0       0x10 /home/james/devkitPro/libnds/lib/libdswifi9.a(wifi_arm9.o)
                0x00000000020030b0                Wifi_GetIP
 .text.Wifi_SetIP
                0x00000000020030c0       0x24 /home/james/devkitPro/libnds/lib/libdswifi9.a(wifi_arm9.o)
                0x00000000020030c0                Wifi_SetIP
 .text.Wifi_AssocStatus
                0x00000000020030e4      0x308 /home/james/devkitPro/libnds/lib/libdswifi9.a(wifi_arm9.o)
                0x00000000020030e4                Wifi_AssocStatus
 .text.Wifi_Sync
                0x00000000020033ec       0x1c /home/james/devkitPro/libnds/lib/libdswifi9.a(wifi_arm9.o)
                0x00000000020033ec                Wifi_Sync
 .text.wifiValue32Handler
                0x0000000002003408        0xc /home/james/devkitPro/libnds/lib/libdswifi9.a(wifi_arm9.o)
                0x0000000002003408                wifiValue32Handler
 .text.Wifi_InitDefault
                0x0000000002003414       0x8c /home/james/devkitPro/libnds/lib/libdswifi9.a(wifi_arm9.o)
                0x0000000002003414                Wifi_InitDefault
 .text.sgIP_sockets_Init
                0x00000000020034a0       0x20 /home/james/devkitPro/libnds/lib/libdswifi9.a(sgIP_sockets.o)
                0x00000000020034a0                sgIP_sockets_Init
 .text.socket   0x00000000020034c0       0x90 /home/james/devkitPro/libnds/lib/libdswifi9.a(sgIP_sockets.o)
                0x00000000020034c0                socket
 .text.forceclosesocket
                0x0000000002003550       0x5c /home/james/devkitPro/libnds/lib/libdswifi9.a(sgIP_sockets.o)
                0x0000000002003550                forceclosesocket
 .text.sgIP_sockets_Timer1000ms
                0x00000000020035ac       0x54 /home/james/devkitPro/libnds/lib/libdswifi9.a(sgIP_sockets.o)
                0x00000000020035ac                sgIP_sockets_Timer1000ms
 .text.bind     0x0000000002003600       0x68 /home/james/devkitPro/libnds/lib/libdswifi9.a(sgIP_sockets.o)
                0x0000000002003600                bind
 .text.sendto   0x0000000002003668       0x74 /home/james/devkitPro/libnds/lib/libdswifi9.a(sgIP_sockets.o)
                0x0000000002003668                sendto
 .text.recvfrom
                0x00000000020036dc       0xac /home/james/devkitPro/libnds/lib/libdswifi9.a(sgIP_sockets.o)
                0x00000000020036dc                recvfrom
 .text.shutdown
                0x0000000002003788       0x5c /home/james/devkitPro/libnds/lib/libdswifi9.a(sgIP_sockets.o)
                0x0000000002003788                shutdown
 .text.closesocket
                0x00000000020037e4       0x94 /home/james/devkitPro/libnds/lib/libdswifi9.a(sgIP_sockets.o)
                0x00000000020037e4                closesocket
 .text.ioctl    0x0000000002003878       0xb0 /home/james/devkitPro/libnds/lib/libdswifi9.a(sgIP_sockets.o)
                0x0000000002003878                ioctl
 .text.sgIP_memblock_Init
                0x0000000002003928        0x2 /home/james/devkitPro/libnds/lib/libdswifi9.a(sgIP_memblock.o)
                0x0000000002003928                sgIP_memblock_Init
 .text.sgIP_memblock_allocHW
                0x000000000200392a       0x24 /home/james/devkitPro/libnds/lib/libdswifi9.a(sgIP_memblock.o)
                0x000000000200392a                sgIP_memblock_allocHW
 .text.sgIP_memblock_alloc
                0x000000000200394e        0xc /home/james/devkitPro/libnds/lib/libdswifi9.a(sgIP_memblock.o)
                0x000000000200394e                sgIP_memblock_alloc
 *fill*         0x000000000200395a        0x2 ff
 .text.sgIP_memblock_free
                0x000000000200395c       0x28 /home/james/devkitPro/libnds/lib/libdswifi9.a(sgIP_memblock.o)
                0x000000000200395c                sgIP_memblock_free
 .text.sgIP_memblock_exposeheader
                0x0000000002003984       0x26 /home/james/devkitPro/libnds/lib/libdswifi9.a(sgIP_memblock.o)
                0x0000000002003984                sgIP_memblock_exposeheader
 .text.sgIP_memblock_trimsize
                0x00000000020039aa       0x2e /home/james/devkitPro/libnds/lib/libdswifi9.a(sgIP_memblock.o)
                0x00000000020039aa                sgIP_memblock_trimsize
 .text.sgIP_memblock_IPChecksum
                0x00000000020039d8       0x92 /home/james/devkitPro/libnds/lib/libdswifi9.a(sgIP_memblock.o)
                0x00000000020039d8                sgIP_memblock_IPChecksum
 .text.sgIP_memblock_CopyToLinear
                0x0000000002003a6a       0x5a /home/james/devkitPro/libnds/lib/libdswifi9.a(sgIP_memblock.o)
                0x0000000002003a6a                sgIP_memblock_CopyToLinear
 .text.sgIP_memblock_CopyFromLinear
                0x0000000002003ac4       0x5a /home/james/devkitPro/libnds/lib/libdswifi9.a(sgIP_memblock.o)
                0x0000000002003ac4                sgIP_memblock_CopyFromLinear
 *fill*         0x0000000002003b1e        0x2 ff
 .text.sgIP_TCP_Init
                0x0000000002003b20       0x34 /home/james/devkitPro/libnds/lib/libdswifi9.a(sgIP_TCP.o)
                0x0000000002003b20                sgIP_TCP_Init
 .text.sgIP_TCP_support_seqhash
                0x0000000002003b54       0x4c /home/james/devkitPro/libnds/lib/libdswifi9.a(sgIP_TCP.o)
                0x0000000002003b54                sgIP_TCP_support_seqhash
 .text.sgIP_TCP_CalcChecksum
                0x0000000002003ba0       0x58 /home/james/devkitPro/libnds/lib/libdswifi9.a(sgIP_TCP.o)
                0x0000000002003ba0                sgIP_TCP_CalcChecksum
 .text.sgIP_TCP_GenHeader
                0x0000000002003bf8       0x98 /home/james/devkitPro/libnds/lib/libdswifi9.a(sgIP_TCP.o)
                0x0000000002003bf8                sgIP_TCP_GenHeader
 .text.sgIP_TCP_FixChecksum
                0x0000000002003c90       0x60 /home/james/devkitPro/libnds/lib/libdswifi9.a(sgIP_TCP.o)
                0x0000000002003c90                sgIP_TCP_FixChecksum
 .text.sgIP_TCP_SendPacket
                0x0000000002003cf0       0xc0 /home/james/devkitPro/libnds/lib/libdswifi9.a(sgIP_TCP.o)
                0x0000000002003cf0                sgIP_TCP_SendPacket
 .text.sgIP_TCP_SendSynReply
                0x0000000002003db0       0xa4 /home/james/devkitPro/libnds/lib/libdswifi9.a(sgIP_TCP.o)
                0x0000000002003db0                sgIP_TCP_SendSynReply
 .text.sgIP_TCP_Timer
                0x0000000002003e54      0x1c4 /home/james/devkitPro/libnds/lib/libdswifi9.a(sgIP_TCP.o)
                0x0000000002003e54                sgIP_TCP_Timer
 .text.sgIP_TCP_AllocRecord
                0x0000000002004018       0x48 /home/james/devkitPro/libnds/lib/libdswifi9.a(sgIP_TCP.o)
                0x0000000002004018                sgIP_TCP_AllocRecord
 .text.sgIP_TCP_ReceivePacket
                0x0000000002004060      0x518 /home/james/devkitPro/libnds/lib/libdswifi9.a(sgIP_TCP.o)
                0x0000000002004060                sgIP_TCP_ReceivePacket
 .text.sgIP_TCP_FreeRecord
                0x0000000002004578       0xc8 /home/james/devkitPro/libnds/lib/libdswifi9.a(sgIP_TCP.o)
                0x0000000002004578                sgIP_TCP_FreeRecord
 .text.sgIP_TCP_Bind
                0x0000000002004640       0x28 /home/james/devkitPro/libnds/lib/libdswifi9.a(sgIP_TCP.o)
                0x0000000002004640                sgIP_TCP_Bind
 .text.sgIP_TCP_Close
                0x0000000002004668       0x30 /home/james/devkitPro/libnds/lib/libdswifi9.a(sgIP_TCP.o)
                0x0000000002004668                sgIP_TCP_Close
 .text.sgIP_Hub_Init
                0x0000000002004698       0x14 /home/james/devkitPro/libnds/lib/libdswifi9.a(sgIP_Hub.o)
                0x0000000002004698                sgIP_Hub_Init
 .text.sgIP_Hub_AddProtocolInterface
                0x00000000020046ac       0x40 /home/james/devkitPro/libnds/lib/libdswifi9.a(sgIP_Hub.o)
                0x00000000020046ac                sgIP_Hub_AddProtocolInterface
 .text.sgIP_Hub_AddHardwareInterface
                0x00000000020046ec       0x3c /home/james/devkitPro/libnds/lib/libdswifi9.a(sgIP_Hub.o)
                0x00000000020046ec                sgIP_Hub_AddHardwareInterface
 .text.sgIP_Hub_ReceiveHardwarePacket
                0x0000000002004728       0x5c /home/james/devkitPro/libnds/lib/libdswifi9.a(sgIP_Hub.o)
                0x0000000002004728                sgIP_Hub_ReceiveHardwarePacket
 .text.sgIP_Hub_SendProtocolPacket
                0x0000000002004784       0x40 /home/james/devkitPro/libnds/lib/libdswifi9.a(sgIP_Hub.o)
                0x0000000002004784                sgIP_Hub_SendProtocolPacket
 .text.sgIP_Hub_SendRawPacket
                0x00000000020047c4       0x24 /home/james/devkitPro/libnds/lib/libdswifi9.a(sgIP_Hub.o)
                0x00000000020047c4                sgIP_Hub_SendRawPacket
 .text.sgIP_Hub_IPMaxMessageSize
                0x00000000020047e8        0x8 /home/james/devkitPro/libnds/lib/libdswifi9.a(sgIP_Hub.o)
                0x00000000020047e8                sgIP_Hub_IPMaxMessageSize
 .text.sgIP_Hub_GetCompatibleIP
                0x00000000020047f0       0x14 /home/james/devkitPro/libnds/lib/libdswifi9.a(sgIP_Hub.o)
                0x00000000020047f0                sgIP_Hub_GetCompatibleIP
 .text.htons    0x0000000002004804        0xc /home/james/devkitPro/libnds/lib/libdswifi9.a(sgIP_Hub.o)
                0x0000000002004804                htons
 .text.htonl    0x0000000002004810       0x1c /home/james/devkitPro/libnds/lib/libdswifi9.a(sgIP_Hub.o)
                0x0000000002004810                htonl
 .text.sgIP_DNS_Init
                0x000000000200482c       0x40 /home/james/devkitPro/libnds/lib/libdswifi9.a(sgIP_DNS.o)
                0x000000000200482c                sgIP_DNS_Init
 .text.sgIP_DNS_Timer1000ms
                0x000000000200486c       0x40 /home/james/devkitPro/libnds/lib/libdswifi9.a(sgIP_DNS.o)
                0x000000000200486c                sgIP_DNS_Timer1000ms
 .text.sgIP_DNS_isipaddress
                0x00000000020048ac      0x198 /home/james/devkitPro/libnds/lib/libdswifi9.a(sgIP_DNS.o)
                0x00000000020048ac                sgIP_DNS_isipaddress
 .text.sgIP_DNS_GetUnusedRecord
                0x0000000002004a44       0x8c /home/james/devkitPro/libnds/lib/libdswifi9.a(sgIP_DNS.o)
                0x0000000002004a44                sgIP_DNS_GetUnusedRecord
 .text.inet_aton
                0x0000000002004ad0       0x16 /home/james/devkitPro/libnds/lib/libdswifi9.a(sgIP_DNS.o)
                0x0000000002004ad0                inet_aton
 *fill*         0x0000000002004ae6        0x2 ff
 .text.sgIP_DHCP_Init
                0x0000000002004ae8       0x40 /home/james/devkitPro/libnds/lib/libdswifi9.a(sgIP_DHCP.o)
                0x0000000002004ae8                sgIP_DHCP_Init
 .text.sgIP_DHCP_SendDgram
                0x0000000002004b28       0x6c /home/james/devkitPro/libnds/lib/libdswifi9.a(sgIP_DHCP.o)
                0x0000000002004b28                sgIP_DHCP_SendDgram
 .text.sgIP_DHCP_BeginDgram
                0x0000000002004b94      0x1dc /home/james/devkitPro/libnds/lib/libdswifi9.a(sgIP_DHCP.o)
                0x0000000002004b94                sgIP_DHCP_BeginDgram
 .text.sgIP_DHCP_Terminate
                0x0000000002004d70       0x34 /home/james/devkitPro/libnds/lib/libdswifi9.a(sgIP_DHCP.o)
                0x0000000002004d70                sgIP_DHCP_Terminate
 .text.sgIP_DHCP_Start
                0x0000000002004da4       0xc0 /home/james/devkitPro/libnds/lib/libdswifi9.a(sgIP_DHCP.o)
                0x0000000002004da4                sgIP_DHCP_Start
 .text.sgIP_DHCP_Update
                0x0000000002004e64      0x3dc /home/james/devkitPro/libnds/lib/libdswifi9.a(sgIP_DHCP.o)
                0x0000000002004e64                sgIP_DHCP_Update
 .text.gethostname
                0x0000000002005240       0x34 /home/james/devkitPro/libnds/lib/libdswifi9.a(sgIP_DHCP.o)
                0x0000000002005240                gethostname
 .text.sgIP_UDP_Init
                0x0000000002005274       0x1c /home/james/devkitPro/libnds/lib/libdswifi9.a(sgIP_UDP.o)
                0x0000000002005274                sgIP_UDP_Init
 .text.sgIP_UDP_GetUnusedOutgoingPort
                0x0000000002005290       0x58 /home/james/devkitPro/libnds/lib/libdswifi9.a(sgIP_UDP.o)
                0x0000000002005290                sgIP_UDP_GetUnusedOutgoingPort
 .text.sgIP_UDP_CalcChecksum
                0x00000000020052e8       0x68 /home/james/devkitPro/libnds/lib/libdswifi9.a(sgIP_UDP.o)
                0x00000000020052e8                sgIP_UDP_CalcChecksum
 .text.sgIP_UDP_ReceivePacket
                0x0000000002005350       0x9c /home/james/devkitPro/libnds/lib/libdswifi9.a(sgIP_UDP.o)
                0x0000000002005350                sgIP_UDP_ReceivePacket
 .text.sgIP_UDP_SendPacket
                0x00000000020053ec       0xd4 /home/james/devkitPro/libnds/lib/libdswifi9.a(sgIP_UDP.o)
                0x00000000020053ec                sgIP_UDP_SendPacket
 .text.sgIP_UDP_AllocRecord
                0x00000000020054c0       0x38 /home/james/devkitPro/libnds/lib/libdswifi9.a(sgIP_UDP.o)
                0x00000000020054c0                sgIP_UDP_AllocRecord
 .text.sgIP_UDP_FreeRecord
                0x00000000020054f8       0x4c /home/james/devkitPro/libnds/lib/libdswifi9.a(sgIP_UDP.o)
                0x00000000020054f8                sgIP_UDP_FreeRecord
 .text.sgIP_UDP_Bind
                0x0000000002005544       0x38 /home/james/devkitPro/libnds/lib/libdswifi9.a(sgIP_UDP.o)
                0x0000000002005544                sgIP_UDP_Bind
 .text.sgIP_UDP_RecvFrom
                0x000000000200557c       0xbc /home/james/devkitPro/libnds/lib/libdswifi9.a(sgIP_UDP.o)
                0x000000000200557c                sgIP_UDP_RecvFrom
 .text.sgIP_UDP_SendTo
                0x0000000002005638        0xe /home/james/devkitPro/libnds/lib/libdswifi9.a(sgIP_UDP.o)
                0x0000000002005638                sgIP_UDP_SendTo
 *fill*         0x0000000002005646        0x2 ff
 .text.sgIP_Init
                0x0000000002005648       0x3c /home/james/devkitPro/libnds/lib/libdswifi9.a(sgIP.o)
                0x0000000002005648                sgIP_Init
 .text.sgIP_Timer
                0x0000000002005684       0x6c /home/james/devkitPro/libnds/lib/libdswifi9.a(sgIP.o)
                0x0000000002005684                sgIP_Timer
 .text.sgIP_FindArpSlot
                0x00000000020056f0       0x2c /home/james/devkitPro/libnds/lib/libdswifi9.a(sgIP_ARP.o)
                0x00000000020056f0                sgIP_FindArpSlot
 .text.sgIP_GetArpSlot
                0x000000000200571c       0x48 /home/james/devkitPro/libnds/lib/libdswifi9.a(sgIP_ARP.o)
                0x000000000200571c                sgIP_GetArpSlot
 .text.sgIP_ARP_Init
                0x0000000002005764       0x20 /home/james/devkitPro/libnds/lib/libdswifi9.a(sgIP_ARP.o)
                0x0000000002005764                sgIP_ARP_Init
 .text.sgIP_ARP_FlushInterface
                0x0000000002005784       0x28 /home/james/devkitPro/libnds/lib/libdswifi9.a(sgIP_ARP.o)
                0x0000000002005784                sgIP_ARP_FlushInterface
 .text.sgIP_ARP_SendARPResponse
                0x00000000020057ac       0xd0 /home/james/devkitPro/libnds/lib/libdswifi9.a(sgIP_ARP.o)
                0x00000000020057ac                sgIP_ARP_SendARPResponse
 .text.sgIP_ARP_SendGratARP
                0x000000000200587c       0xe0 /home/james/devkitPro/libnds/lib/libdswifi9.a(sgIP_ARP.o)
                0x000000000200587c                sgIP_ARP_SendGratARP
 .text.sgIP_ARP_SendARPRequest
                0x000000000200595c       0xc8 /home/james/devkitPro/libnds/lib/libdswifi9.a(sgIP_ARP.o)
                0x000000000200595c                sgIP_ARP_SendARPRequest
 .text.sgIP_ARP_Timer100ms
                0x0000000002005a24       0x58 /home/james/devkitPro/libnds/lib/libdswifi9.a(sgIP_ARP.o)
                0x0000000002005a24                sgIP_ARP_Timer100ms
 .text.sgIP_ARP_SendProtocolFrame
                0x0000000002005a7c       0xec /home/james/devkitPro/libnds/lib/libdswifi9.a(sgIP_ARP.o)
                0x0000000002005a7c                sgIP_ARP_SendProtocolFrame
 .text.sgIP_ARP_ProcessARPFrame
                0x0000000002005b68       0xd8 /home/james/devkitPro/libnds/lib/libdswifi9.a(sgIP_ARP.o)
                0x0000000002005b68                sgIP_ARP_ProcessARPFrame
 .text.sgIP_IP_ReceivePacket
                0x0000000002005c40       0x94 /home/james/devkitPro/libnds/lib/libdswifi9.a(sgIP_IP.o)
                0x0000000002005c40                sgIP_IP_ReceivePacket
 .text.sgIP_IP_MaxContentsSize
                0x0000000002005cd4        0xa /home/james/devkitPro/libnds/lib/libdswifi9.a(sgIP_IP.o)
                0x0000000002005cd4                sgIP_IP_MaxContentsSize
 .text.sgIP_IP_RequiredHeaderSize
                0x0000000002005cde        0x4 /home/james/devkitPro/libnds/lib/libdswifi9.a(sgIP_IP.o)
                0x0000000002005cde                sgIP_IP_RequiredHeaderSize
 *fill*         0x0000000002005ce2        0x2 ff
 .text.sgIP_IP_SendViaIP
                0x0000000002005ce4       0x8c /home/james/devkitPro/libnds/lib/libdswifi9.a(sgIP_IP.o)
                0x0000000002005ce4                sgIP_IP_SendViaIP
 .text.sgIP_IP_GetLocalBindAddr
                0x0000000002005d70        0xe /home/james/devkitPro/libnds/lib/libdswifi9.a(sgIP_IP.o)
                0x0000000002005d70                sgIP_IP_GetLocalBindAddr
 *fill*         0x0000000002005d7e        0x2 ff
 .text.sgIP_ICMP_ReceivePacket
                0x0000000002005d80       0x64 /home/james/devkitPro/libnds/lib/libdswifi9.a(sgIP_ICMP.o)
                0x0000000002005d80                sgIP_ICMP_ReceivePacket
 .text.newRow   0x0000000002005de4       0xb4 /home/james/devkitPro/libnds/lib/libnds9.a(console.o)
 .text.consoleSelect
                0x0000000002005e98       0x10 /home/james/devkitPro/libnds/lib/libnds9.a(console.o)
                0x0000000002005e98                consoleSelect
 .text.consolePrintChar
                0x0000000002005ea8       0xf4 /home/james/devkitPro/libnds/lib/libnds9.a(console.o)
                0x0000000002005ea8                consolePrintChar
 .text.consoleCls
                0x0000000002005f9c       0xec /home/james/devkitPro/libnds/lib/libnds9.a(console.o)
 .text.consoleLoadFont
                0x0000000002006088      0x27c /home/james/devkitPro/libnds/lib/libnds9.a(console.o)
                0x0000000002006088                consoleLoadFont
 .text.consoleInit
                0x0000000002006304      0x16c /home/james/devkitPro/libnds/lib/libnds9.a(console.o)
                0x0000000002006304                consoleInit
 .text.con_write
                0x0000000002006470      0x2ac /home/james/devkitPro/libnds/lib/libnds9.a(console.o)
                0x0000000002006470                con_write
 .text.consoleClear
                0x000000000200671c       0x10 /home/james/devkitPro/libnds/lib/libnds9.a(console.o)
                0x000000000200671c                consoleClear
 .text.touchRead
                0x000000000200672c       0x24 /home/james/devkitPro/libnds/lib/libnds9.a(touch.o)
                0x000000000200672c                touchRead
 .text.checkIfText.part.0
                0x0000000002006750       0x3c /home/james/devkitPro/libnds/lib/libnds9.a(background.o)
 .text.bgUpdate
                0x000000000200678c       0xf0 /home/james/devkitPro/libnds/lib/libnds9.a(background.o)
                0x000000000200678c                bgUpdate
 .text.bgInit_call
                0x000000000200687c       0xf4 /home/james/devkitPro/libnds/lib/libnds9.a(background.o)
                0x000000000200687c                bgInit_call
 .text.bgInitSub_call
                0x0000000002006970       0xf8 /home/james/devkitPro/libnds/lib/libnds9.a(background.o)
                0x0000000002006970                bgInitSub_call
 .text.sinLerp  0x0000000002006a68       0x98 /home/james/devkitPro/libnds/lib/libnds9.a(trig.o)
                0x0000000002006a68                sinLerp
 .text.cosLerp  0x0000000002006b00       0x14 /home/james/devkitPro/libnds/lib/libnds9.a(trig.o)
                0x0000000002006b00                cosLerp
 .text.keyboardGetKey
                0x0000000002006b14       0x4c /home/james/devkitPro/libnds/lib/libnds9.a(keyboard.o)
                0x0000000002006b14                keyboardGetKey
 .text.keyboardShiftState
                0x0000000002006b60       0x98 /home/james/devkitPro/libnds/lib/libnds9.a(keyboard.o)
                0x0000000002006b60                keyboardShiftState
 .text.swapKeyGfx
                0x0000000002006bf8      0x148 /home/james/devkitPro/libnds/lib/libnds9.a(keyboard.o)
                0x0000000002006bf8                swapKeyGfx
 .text.keyboardUpdate
                0x0000000002006d40      0x134 /home/james/devkitPro/libnds/lib/libnds9.a(keyboard.o)
                0x0000000002006d40                keyboardUpdate
 .text.keyboardInit
                0x0000000002006e74      0x1fc /home/james/devkitPro/libnds/lib/libnds9.a(keyboard.o)
                0x0000000002006e74                keyboardInit
 .text.keyboardDemoInit
                0x0000000002007070       0x2c /home/james/devkitPro/libnds/lib/libnds9.a(keyboard.o)
                0x0000000002007070                keyboardDemoInit
 .text.keyboardShow
                0x000000000200709c       0xd4 /home/james/devkitPro/libnds/lib/libnds9.a(keyboard.o)
                0x000000000200709c                keyboardShow
 .text.keyboardHide
                0x0000000002007170       0x90 /home/james/devkitPro/libnds/lib/libnds9.a(keyboard.o)
                0x0000000002007170                keyboardHide
 .text.keyboardRead
                0x0000000002007200       0xc4 /home/james/devkitPro/libnds/lib/libnds9.a(keyboard.o)
                0x0000000002007200                keyboardRead
 .text.scanKeys
                0x00000000020072c4       0x90 /home/james/devkitPro/libnds/lib/libnds9.a(keys.o)
                0x00000000020072c4                scanKeys
 .text.keysHeld
                0x0000000002007354        0xc /home/james/devkitPro/libnds/lib/libnds9.a(keys.o)
                0x0000000002007354                keysHeld
 .text.keysDown
                0x0000000002007360       0x14 /home/james/devkitPro/libnds/lib/libnds9.a(keys.o)
                0x0000000002007360                keysDown
 .text.keysCurrent
                0x0000000002007374       0x38 /home/james/devkitPro/libnds/lib/libnds9.a(keys.o)
                0x0000000002007374                keysCurrent
 .text.initSystem
                0x00000000020073ac      0x194 /home/james/devkitPro/libnds/lib/libnds9.a(initSystem.o)
                0x00000000020073ac                initSystem
 .text.__libnds_gtod
                0x0000000002007540       0x24 /home/james/devkitPro/libnds/lib/libnds9.a(timeSupport.o)
                0x0000000002007540                __libnds_gtod
 .text.irqDummy
                0x0000000002007564        0x4 /home/james/devkitPro/libnds/lib/libnds9.a(interrupts.o)
                0x0000000002007564                irqDummy
 .text.irqSet   0x0000000002007568       0x6c /home/james/devkitPro/libnds/lib/libnds9.a(interrupts.o)
                0x0000000002007568                irqSet
 .text.irqInit  0x00000000020075d4       0x50 /home/james/devkitPro/libnds/lib/libnds9.a(interrupts.o)
                0x00000000020075d4                irqInit
 .text.irqEnable
                0x0000000002007624       0x64 /home/james/devkitPro/libnds/lib/libnds9.a(interrupts.o)
                0x0000000002007624                irqEnable
 .text.irqDisable
                0x0000000002007688       0x64 /home/james/devkitPro/libnds/lib/libnds9.a(interrupts.o)
                0x0000000002007688                irqDisable
 .text.systemErrorExit
                0x00000000020076ec        0x4 /home/james/devkitPro/libnds/lib/libnds9.a(libnds_exit.arm.o)
                0x00000000020076ec                systemErrorExit
 .text.__libnds_exit
                0x00000000020076f0       0x5c /home/james/devkitPro/libnds/lib/libnds9.a(libnds_exit.arm.o)
                0x00000000020076f0                __libnds_exit
 .text.__timeoutvbl
                0x000000000200774c       0x10 /home/james/devkitPro/libnds/lib/libnds9.a(fifosystem.o)
 .text.fifo_allocBlock.part.0
                0x000000000200775c       0x34 /home/james/devkitPro/libnds/lib/libnds9.a(fifosystem.o)
 .text.fifo_waitBlock
                0x0000000002007790       0x48 /home/james/devkitPro/libnds/lib/libnds9.a(fifosystem.o)
 .text.fifoInternalSendInterrupt
                0x00000000020077d8       0x9c /home/james/devkitPro/libnds/lib/libnds9.a(fifosystem.o)
 .text.fifoInternalSend.part.2
                0x0000000002007874       0xd8 /home/james/devkitPro/libnds/lib/libnds9.a(fifosystem.o)
 .text.fifoGetValue32.part.3
                0x000000000200794c       0x74 /home/james/devkitPro/libnds/lib/libnds9.a(fifosystem.o)
 .text.fifoSetValue32Handler
                0x00000000020079c0       0x74 /home/james/devkitPro/libnds/lib/libnds9.a(fifosystem.o)
                0x00000000020079c0                fifoSetValue32Handler
 .text.fifoSendAddress
                0x0000000002007a34       0x38 /home/james/devkitPro/libnds/lib/libnds9.a(fifosystem.o)
                0x0000000002007a34                fifoSendAddress
 .text.fifoSendValue32
                0x0000000002007a6c       0x50 /home/james/devkitPro/libnds/lib/libnds9.a(fifosystem.o)
                0x0000000002007a6c                fifoSendValue32
 .text.fifoGetDatamsg
                0x0000000002007abc      0x148 /home/james/devkitPro/libnds/lib/libnds9.a(fifosystem.o)
                0x0000000002007abc                fifoGetDatamsg
 .text.fifoInternalRecvInterrupt
                0x0000000002007c04      0x460 /home/james/devkitPro/libnds/lib/libnds9.a(fifosystem.o)
 .text.fifoSetDatamsgHandler
                0x0000000002008064       0x9c /home/james/devkitPro/libnds/lib/libnds9.a(fifosystem.o)
                0x0000000002008064                fifoSetDatamsgHandler
 .text.fifoInit
                0x0000000002008100      0x1cc /home/james/devkitPro/libnds/lib/libnds9.a(fifosystem.o)
                0x0000000002008100                fifoInit
 .text.DC_FlushAll
                0x00000000020082cc       0x2c /home/james/devkitPro/libnds/lib/libnds9.a(dcache.o)
                0x00000000020082cc                DC_FlushAll
 .text.DC_FlushRange
                0x00000000020082f8       0x24 /home/james/devkitPro/libnds/lib/libnds9.a(dcache.o)
                0x00000000020082f8                DC_FlushRange
 .text.__libnds_mpu_setup
                0x000000000200831c      0x174 /home/james/devkitPro/libnds/lib/libnds9.a(mpu_setup.o)
                0x000000000200831c                __libnds_mpu_setup
 .text.memUncached
                0x0000000002008490       0x20 /home/james/devkitPro/libnds/lib/libnds9.a(mpu_setup.o)
                0x0000000002008490                memUncached
 .text.swiWaitForVBlank
                0x00000000020084b0        0x8 /home/james/devkitPro/libnds/lib/libnds9.a(IntrWait.o)
                0x00000000020084b0                swiWaitForVBlank
 .text.swiIntrWait
                0x00000000020084b8       0x64 /home/james/devkitPro/libnds/lib/libnds9.a(IntrWait.o)
                0x00000000020084b8                swiIntrWait
 .text.setCpuClock
                0x000000000200851c       0x50 /home/james/devkitPro/libnds/lib/libnds9.a(cpu_clock.o)
                0x000000000200851c                setCpuClock
 .text.swiSoftReset
                0x000000000200856c       0x2c /home/james/devkitPro/libnds/lib/libnds9.a(swiSoftReset.o)
                0x000000000200856c                swiSoftReset
 .text.vramDefault
                0x0000000002008598       0xd0 /home/james/devkitPro/libnds/lib/libnds9.a(video.o)
                0x0000000002008598                vramDefault
 .text.systemValueHandler
                0x0000000002008668       0x48 /home/james/devkitPro/libnds/lib/libnds9.a(system.o)
                0x0000000002008668                systemValueHandler
 .text.systemMsgHandler
                0x00000000020086b0       0x5c /home/james/devkitPro/libnds/lib/libnds9.a(system.o)
                0x00000000020086b0                systemMsgHandler
 .text.powerOn  0x000000000200870c       0x2c /home/james/devkitPro/libnds/lib/libnds9.a(system.o)
                0x000000000200870c                powerOn
 .text.getHeader
                0x0000000002008738        0x4 /home/james/devkitPro/libnds/lib/libnds9.a(decompress.o)
                0x0000000002008738                getHeader
 .text.readByte
                0x000000000200873c        0x4 /home/james/devkitPro/libnds/lib/libnds9.a(decompress.o)
                0x000000000200873c                readByte
 .text.decompress
                0x0000000002008740       0x40 /home/james/devkitPro/libnds/lib/libnds9.a(decompress.o)
                0x0000000002008740                decompress
 .text.swiDecompressLZSSVram
                0x0000000002008780       0x1c /home/james/devkitPro/libnds/lib/libnds9.a(syscalls.o)
                0x0000000002008780                swiDecompressLZSSVram
 .text.swiDelay
                0x000000000200879c        0x4 /home/james/devkitPro/libnds/lib/libnds9.a(biosCalls.o)
                0x000000000200879c                swiDelay
 .text.swiDecompressLZSSWram
                0x00000000020087a0        0x4 /home/james/devkitPro/libnds/lib/libnds9.a(biosCalls.o)
                0x00000000020087a0                swiDecompressLZSSWram
 .text.swiDecompressLZSSVramNTR
                0x00000000020087a4        0x4 /home/james/devkitPro/libnds/lib/libnds9.a(biosCalls.o)
                0x00000000020087a4                swiDecompressLZSSVramNTR
 .text.swiDecompressLZSSVramTWL
                0x00000000020087a8        0x4 /home/james/devkitPro/libnds/lib/libnds9.a(biosCalls.o)
                0x00000000020087a8                swiDecompressLZSSVramTWL
 .text.swiDecompressHuffman
                0x00000000020087ac        0x4 /home/james/devkitPro/libnds/lib/libnds9.a(biosCalls.o)
                0x00000000020087ac                swiDecompressHuffman
 .text.swiDecompressRLEWram
                0x00000000020087b0        0x4 /home/james/devkitPro/libnds/lib/libnds9.a(biosCalls.o)
                0x00000000020087b0                swiDecompressRLEWram
 .text.swiDecompressRLEVram
                0x00000000020087b4        0x4 /home/james/devkitPro/libnds/lib/libnds9.a(biosCalls.o)
                0x00000000020087b4                swiDecompressRLEVram
 .text.__errno  0x00000000020087b8        0xc /home/james/devkitPro/devkitARM/bin/../lib/gcc/arm-none-eabi/6.3.0/../../../../arm-none-eabi/lib/thumb/libg.a(lib_a-errno.o)
                0x00000000020087b8                __errno
 .text.__libc_init_array
                0x00000000020087c4       0x58 /home/james/devkitPro/devkitARM/bin/../lib/gcc/arm-none-eabi/6.3.0/../../../../arm-none-eabi/lib/thumb/libg.a(lib_a-init.o)
                0x00000000020087c4                __libc_init_array
 .text.iprintf  0x000000000200881c       0x24 /home/james/devkitPro/devkitARM/bin/../lib/gcc/arm-none-eabi/6.3.0/../../../../arm-none-eabi/lib/thumb/libg.a(lib_a-iprintf.o)
                0x000000000200881c                iprintf
 .text.malloc   0x0000000002008840       0x14 /home/james/devkitPro/devkitARM/bin/../lib/gcc/arm-none-eabi/6.3.0/../../../../arm-none-eabi/lib/thumb/libg.a(lib_a-malloc.o)
                0x0000000002008840                malloc
 .text.free     0x0000000002008854       0x14 /home/james/devkitPro/devkitARM/bin/../lib/gcc/arm-none-eabi/6.3.0/../../../../arm-none-eabi/lib/thumb/libg.a(lib_a-malloc.o)
                0x0000000002008854                free
 .text._malloc_r
                0x0000000002008868      0x560 /home/james/devkitPro/devkitARM/bin/../lib/gcc/arm-none-eabi/6.3.0/../../../../arm-none-eabi/lib/thumb/libg.a(lib_a-mallocr.o)
                0x0000000002008868                _malloc_r
 .text.memcpy   0x0000000002008dc8       0x88 /home/james/devkitPro/devkitARM/bin/../lib/gcc/arm-none-eabi/6.3.0/../../../../arm-none-eabi/lib/thumb/libg.a(lib_a-memcpy-stub.o)
                0x0000000002008dc8                memcpy
 .text.memset   0x0000000002008e50       0x9c /home/james/devkitPro/devkitARM/bin/../lib/gcc/arm-none-eabi/6.3.0/../../../../arm-none-eabi/lib/thumb/libg.a(lib_a-memset.o)
                0x0000000002008e50                memset
 .text.__malloc_lock
                0x0000000002008eec       0x14 /home/james/devkitPro/devkitARM/bin/../lib/gcc/arm-none-eabi/6.3.0/../../../../arm-none-eabi/lib/thumb/libg.a(lib_a-mlock.o)
                0x0000000002008eec                __malloc_lock
 .text.__malloc_unlock
                0x0000000002008f00       0x14 /home/james/devkitPro/devkitARM/bin/../lib/gcc/arm-none-eabi/6.3.0/../../../../arm-none-eabi/lib/thumb/libg.a(lib_a-mlock.o)
                0x0000000002008f00                __malloc_unlock
 .text._perror_r
                0x0000000002008f14       0x4c /home/james/devkitPro/devkitARM/bin/../lib/gcc/arm-none-eabi/6.3.0/../../../../arm-none-eabi/lib/thumb/libg.a(lib_a-perror.o)
                0x0000000002008f14                _perror_r
 .text.perror   0x0000000002008f60       0x14 /home/james/devkitPro/devkitARM/bin/../lib/gcc/arm-none-eabi/6.3.0/../../../../arm-none-eabi/lib/thumb/libg.a(lib_a-perror.o)
                0x0000000002008f60                perror
 .text.scanf    0x0000000002008f74       0x24 /home/james/devkitPro/devkitARM/bin/../lib/gcc/arm-none-eabi/6.3.0/../../../../arm-none-eabi/lib/thumb/libg.a(lib_a-scanf.o)
                0x0000000002008f74                scanf
 .text.setvbuf  0x0000000002008f98      0x1a4 /home/james/devkitPro/devkitARM/bin/../lib/gcc/arm-none-eabi/6.3.0/../../../../arm-none-eabi/lib/thumb/libg.a(lib_a-setvbuf.o)
                0x0000000002008f98                setvbuf
 .text.siscanf  0x000000000200913c       0x4c /home/james/devkitPro/devkitARM/bin/../lib/gcc/arm-none-eabi/6.3.0/../../../../arm-none-eabi/lib/thumb/libg.a(lib_a-siscanf.o)
                0x000000000200913c                siscanf
 .text.snprintf
                0x0000000002009188       0x80 /home/james/devkitPro/devkitARM/bin/../lib/gcc/arm-none-eabi/6.3.0/../../../../arm-none-eabi/lib/thumb/libg.a(lib_a-snprintf.o)
                0x0000000002009188                snprintf
 .text.__sread  0x0000000002009208       0x34 /home/james/devkitPro/devkitARM/bin/../lib/gcc/arm-none-eabi/6.3.0/../../../../arm-none-eabi/lib/thumb/libg.a(lib_a-stdio.o)
                0x0000000002009208                __sread
 .text.__seofread
                0x000000000200923c        0x4 /home/james/devkitPro/devkitARM/bin/../lib/gcc/arm-none-eabi/6.3.0/../../../../arm-none-eabi/lib/thumb/libg.a(lib_a-stdio.o)
                0x000000000200923c                __seofread
 .text.__swrite
                0x0000000002009240       0x48 /home/james/devkitPro/devkitARM/bin/../lib/gcc/arm-none-eabi/6.3.0/../../../../arm-none-eabi/lib/thumb/libg.a(lib_a-stdio.o)
                0x0000000002009240                __swrite
 .text.__sseek  0x0000000002009288       0x40 /home/james/devkitPro/devkitARM/bin/../lib/gcc/arm-none-eabi/6.3.0/../../../../arm-none-eabi/lib/thumb/libg.a(lib_a-stdio.o)
                0x0000000002009288                __sseek
 .text.__sclose
                0x00000000020092c8       0x10 /home/james/devkitPro/devkitARM/bin/../lib/gcc/arm-none-eabi/6.3.0/../../../../arm-none-eabi/lib/thumb/libg.a(lib_a-stdio.o)
                0x00000000020092c8                __sclose
 .text.strcpy   0x00000000020092d8       0x10 /home/james/devkitPro/devkitARM/bin/../lib/gcc/arm-none-eabi/6.3.0/../../../../arm-none-eabi/lib/thumb/libg.a(lib_a-strcpy.o)
                0x00000000020092d8                strcpy
 .text._strerror_r
                0x00000000020092e8      0x2bc /home/james/devkitPro/devkitARM/bin/../lib/gcc/arm-none-eabi/6.3.0/../../../../arm-none-eabi/lib/thumb/libg.a(lib_a-strerror.o)
                0x00000000020092e8                _strerror_r
 .text.strlen   0x00000000020095a4       0x68 /home/james/devkitPro/devkitARM/bin/../lib/gcc/arm-none-eabi/6.3.0/../../../../arm-none-eabi/lib/thumb/libg.a(lib_a-strlen-stub.o)
                0x00000000020095a4                strlen
 .text.strncpy  0x000000000200960c       0x80 /home/james/devkitPro/devkitARM/bin/../lib/gcc/arm-none-eabi/6.3.0/../../../../arm-none-eabi/lib/thumb/libg.a(lib_a-strncpy.o)
                0x000000000200960c                strncpy
 .text._sungetc_r
                0x000000000200968c       0x8c /home/james/devkitPro/devkitARM/bin/../lib/gcc/arm-none-eabi/6.3.0/../../../../arm-none-eabi/lib/thumb/libg.a(lib_a-svfiscanf.o)
                0x000000000200968c                _sungetc_r
 .text.__ssrefill_r
                0x0000000002009718       0x44 /home/james/devkitPro/devkitARM/bin/../lib/gcc/arm-none-eabi/6.3.0/../../../../arm-none-eabi/lib/thumb/libg.a(lib_a-svfiscanf.o)
                0x0000000002009718                __ssrefill_r
 .text._sfread_r
                0x000000000200975c       0x90 /home/james/devkitPro/devkitARM/bin/../lib/gcc/arm-none-eabi/6.3.0/../../../../arm-none-eabi/lib/thumb/libg.a(lib_a-svfiscanf.o)
                0x000000000200975c                _sfread_r
 .text.__ssvfiscanf_r
                0x00000000020097ec     0x13e0 /home/james/devkitPro/devkitARM/bin/../lib/gcc/arm-none-eabi/6.3.0/../../../../arm-none-eabi/lib/thumb/libg.a(lib_a-svfiscanf.o)
                0x00000000020097ec                __ssvfiscanf_r
 .text.get_arg  0x000000000200abcc      0xc4c /home/james/devkitPro/devkitARM/bin/../lib/gcc/arm-none-eabi/6.3.0/../../../../arm-none-eabi/lib/thumb/libg.a(lib_a-svfprintf.o)
 .text._svfprintf_r
                0x000000000200b818     0x2d98 /home/james/devkitPro/devkitARM/bin/../lib/gcc/arm-none-eabi/6.3.0/../../../../arm-none-eabi/lib/thumb/libg.a(lib_a-svfprintf.o)
                0x000000000200b818                _svfprintf_r
 .text.__submore
                0x000000000200e5b0       0x88 /home/james/devkitPro/devkitARM/bin/../lib/gcc/arm-none-eabi/6.3.0/../../../../arm-none-eabi/lib/thumb/libg.a(lib_a-ungetc.o)
                0x000000000200e5b0                __submore
 .text._ungetc_r
                0x000000000200e638      0x11c /home/james/devkitPro/devkitARM/bin/../lib/gcc/arm-none-eabi/6.3.0/../../../../arm-none-eabi/lib/thumb/libg.a(lib_a-ungetc.o)
                0x000000000200e638                _ungetc_r
 .text._user_strerror
                0x000000000200e754        0x4 /home/james/devkitPro/devkitARM/bin/../lib/gcc/arm-none-eabi/6.3.0/../../../../arm-none-eabi/lib/thumb/libg.a(lib_a-u_strerr.o)
                0x000000000200e754                _user_strerror
 .text.get_arg  0x000000000200e758      0xc4c /home/james/devkitPro/devkitARM/bin/../lib/gcc/arm-none-eabi/6.3.0/../../../../arm-none-eabi/lib/thumb/libg.a(lib_a-vfiprintf.o)
 .text.__sprint_r.part.0
                0x000000000200f3a4       0x14 /home/james/devkitPro/devkitARM/bin/../lib/gcc/arm-none-eabi/6.3.0/../../../../arm-none-eabi/lib/thumb/libg.a(lib_a-vfiprintf.o)
 .text._vfiprintf_r
                0x000000000200f3b8     0x1e0c /home/james/devkitPro/devkitARM/bin/../lib/gcc/arm-none-eabi/6.3.0/../../../../arm-none-eabi/lib/thumb/libg.a(lib_a-vfiprintf.o)
                0x000000000200f3b8                _vfiprintf_r
 .text.__sbprintf
                0x00000000020111c4       0x8c /home/james/devkitPro/devkitARM/bin/../lib/gcc/arm-none-eabi/6.3.0/../../../../arm-none-eabi/lib/thumb/libg.a(lib_a-vfiprintf.o)
 .text.__svfscanf_r
                0x0000000002011250     0x1b8c /home/james/devkitPro/devkitARM/bin/../lib/gcc/arm-none-eabi/6.3.0/../../../../arm-none-eabi/lib/thumb/libg.a(lib_a-vfscanf.o)
                0x0000000002011250                __svfscanf_r
 .text._vfscanf_r
                0x0000000002012ddc       0x2c /home/james/devkitPro/devkitARM/bin/../lib/gcc/arm-none-eabi/6.3.0/../../../../arm-none-eabi/lib/thumb/libg.a(lib_a-vfscanf.o)
                0x0000000002012ddc                _vfscanf_r
 .text._wcrtomb_r
                0x0000000002012e08       0x80 /home/james/devkitPro/devkitARM/bin/../lib/gcc/arm-none-eabi/6.3.0/../../../../arm-none-eabi/lib/thumb/libg.a(lib_a-wcrtomb.o)
                0x0000000002012e08                _wcrtomb_r
 .text._wcsrtombs_r
                0x0000000002012e88       0x1c /home/james/devkitPro/devkitARM/bin/../lib/gcc/arm-none-eabi/6.3.0/../../../../arm-none-eabi/lib/thumb/libg.a(lib_a-wcsrtombs.o)
                0x0000000002012e88                _wcsrtombs_r
 .text.__swsetup_r
                0x0000000002012ea4       0xd8 /home/james/devkitPro/devkitARM/bin/../lib/gcc/arm-none-eabi/6.3.0/../../../../arm-none-eabi/lib/thumb/libg.a(lib_a-wsetup.o)
                0x0000000002012ea4                __swsetup_r
 .text.quorem   0x0000000002012f7c      0x15c /home/james/devkitPro/devkitARM/bin/../lib/gcc/arm-none-eabi/6.3.0/../../../../arm-none-eabi/lib/thumb/libg.a(lib_a-dtoa.o)
 .text._dtoa_r  0x00000000020130d8      0xfd0 /home/james/devkitPro/devkitARM/bin/../lib/gcc/arm-none-eabi/6.3.0/../../../../arm-none-eabi/lib/thumb/libg.a(lib_a-dtoa.o)
                0x00000000020130d8                _dtoa_r
 .text.__sflush_r
                0x00000000020140a8      0x1a4 /home/james/devkitPro/devkitARM/bin/../lib/gcc/arm-none-eabi/6.3.0/../../../../arm-none-eabi/lib/thumb/libg.a(lib_a-fflush.o)
                0x00000000020140a8                __sflush_r
 .text._fflush_r
                0x000000000201424c       0x58 /home/james/devkitPro/devkitARM/bin/../lib/gcc/arm-none-eabi/6.3.0/../../../../arm-none-eabi/lib/thumb/libg.a(lib_a-fflush.o)
                0x000000000201424c                _fflush_r
 .text.fflush   0x00000000020142a4       0x2c /home/james/devkitPro/devkitARM/bin/../lib/gcc/arm-none-eabi/6.3.0/../../../../arm-none-eabi/lib/thumb/libg.a(lib_a-fflush.o)
                0x00000000020142a4                fflush
 .text._cleanup_r
                0x00000000020142d0       0x14 /home/james/devkitPro/devkitARM/bin/../lib/gcc/arm-none-eabi/6.3.0/../../../../arm-none-eabi/lib/thumb/libg.a(lib_a-findfp.o)
                0x00000000020142d0                _cleanup_r
 .text.std.isra.0
                0x00000000020142e4       0x54 /home/james/devkitPro/devkitARM/bin/../lib/gcc/arm-none-eabi/6.3.0/../../../../arm-none-eabi/lib/thumb/libg.a(lib_a-findfp.o)
 .text.__sinit  0x0000000002014338       0x64 /home/james/devkitPro/devkitARM/bin/../lib/gcc/arm-none-eabi/6.3.0/../../../../arm-none-eabi/lib/thumb/libg.a(lib_a-findfp.o)
                0x0000000002014338                __sinit
 .text.__sfp_lock_acquire
                0x000000000201439c       0x14 /home/james/devkitPro/devkitARM/bin/../lib/gcc/arm-none-eabi/6.3.0/../../../../arm-none-eabi/lib/thumb/libg.a(lib_a-findfp.o)
                0x000000000201439c                __sfp_lock_acquire
 .text.__sfp_lock_release
                0x00000000020143b0       0x14 /home/james/devkitPro/devkitARM/bin/../lib/gcc/arm-none-eabi/6.3.0/../../../../arm-none-eabi/lib/thumb/libg.a(lib_a-findfp.o)
                0x00000000020143b0                __sfp_lock_release
 .text.fputc    0x00000000020143c4       0x58 /home/james/devkitPro/devkitARM/bin/../lib/gcc/arm-none-eabi/6.3.0/../../../../arm-none-eabi/lib/thumb/libg.a(lib_a-fputc.o)
                0x00000000020143c4                fputc
 .text._fputs_r
                0x000000000201441c       0x6c /home/james/devkitPro/devkitARM/bin/../lib/gcc/arm-none-eabi/6.3.0/../../../../arm-none-eabi/lib/thumb/libg.a(lib_a-fputs.o)
                0x000000000201441c                _fputs_r
 .text.fputs    0x0000000002014488       0x18 /home/james/devkitPro/devkitARM/bin/../lib/gcc/arm-none-eabi/6.3.0/../../../../arm-none-eabi/lib/thumb/libg.a(lib_a-fputs.o)
                0x0000000002014488                fputs
 .text._fread_r
                0x00000000020144a0      0x1c4 /home/james/devkitPro/devkitARM/bin/../lib/gcc/arm-none-eabi/6.3.0/../../../../arm-none-eabi/lib/thumb/libg.a(lib_a-fread.o)
                0x00000000020144a0                _fread_r
 .text._malloc_trim_r
                0x0000000002014664       0xa4 /home/james/devkitPro/devkitARM/bin/../lib/gcc/arm-none-eabi/6.3.0/../../../../arm-none-eabi/lib/thumb/libg.a(lib_a-freer.o)
                0x0000000002014664                _malloc_trim_r
 .text._free_r  0x0000000002014708      0x1c0 /home/james/devkitPro/devkitARM/bin/../lib/gcc/arm-none-eabi/6.3.0/../../../../arm-none-eabi/lib/thumb/libg.a(lib_a-freer.o)
                0x0000000002014708                _free_r
 .text.__sfvwrite_r
                0x00000000020148c8      0x334 /home/james/devkitPro/devkitARM/bin/../lib/gcc/arm-none-eabi/6.3.0/../../../../arm-none-eabi/lib/thumb/libg.a(lib_a-fvwrite.o)
                0x00000000020148c8                __sfvwrite_r
 .text._fwalk   0x0000000002014bfc       0x4c /home/james/devkitPro/devkitARM/bin/../lib/gcc/arm-none-eabi/6.3.0/../../../../arm-none-eabi/lib/thumb/libg.a(lib_a-fwalk.o)
                0x0000000002014bfc                _fwalk
 .text._fwalk_reent
                0x0000000002014c48       0x54 /home/james/devkitPro/devkitARM/bin/../lib/gcc/arm-none-eabi/6.3.0/../../../../arm-none-eabi/lib/thumb/libg.a(lib_a-fwalk.o)
                0x0000000002014c48                _fwalk_reent
 .text.iswspace
                0x0000000002014c9c       0x78 /home/james/devkitPro/devkitARM/bin/../lib/gcc/arm-none-eabi/6.3.0/../../../../arm-none-eabi/lib/thumb/libg.a(lib_a-iswspace.o)
                0x0000000002014c9c                iswspace
 .text.__jp2uc  0x0000000002014d14      0x188 /home/james/devkitPro/devkitARM/bin/../lib/gcc/arm-none-eabi/6.3.0/../../../../arm-none-eabi/lib/thumb/libg.a(lib_a-jp2uc.o)
 .text._jp2uc   0x0000000002014e9c       0x8c /home/james/devkitPro/devkitARM/bin/../lib/gcc/arm-none-eabi/6.3.0/../../../../arm-none-eabi/lib/thumb/libg.a(lib_a-jp2uc.o)
                0x0000000002014e9c                _jp2uc
 .text.__localeconv_l
                0x0000000002014f28        0x4 /home/james/devkitPro/devkitARM/bin/../lib/gcc/arm-none-eabi/6.3.0/../../../../arm-none-eabi/lib/thumb/libg.a(lib_a-localeconv.o)
                0x0000000002014f28                __localeconv_l
 .text._localeconv_r
                0x0000000002014f2c       0x1c /home/james/devkitPro/devkitARM/bin/../lib/gcc/arm-none-eabi/6.3.0/../../../../arm-none-eabi/lib/thumb/libg.a(lib_a-localeconv.o)
                0x0000000002014f2c                _localeconv_r
 .text.__locale_mb_cur_max
                0x0000000002014f48       0x20 /home/james/devkitPro/devkitARM/bin/../lib/gcc/arm-none-eabi/6.3.0/../../../../arm-none-eabi/lib/thumb/libg.a(lib_a-locale.o)
                0x0000000002014f48                __locale_mb_cur_max
 .text.__locale_ctype_ptr_l
                0x0000000002014f68        0x8 /home/james/devkitPro/devkitARM/bin/../lib/gcc/arm-none-eabi/6.3.0/../../../../arm-none-eabi/lib/thumb/libg.a(lib_a-locale.o)
                0x0000000002014f68                __locale_ctype_ptr_l
 .text.__locale_ctype_ptr
                0x0000000002014f70       0x20 /home/james/devkitPro/devkitARM/bin/../lib/gcc/arm-none-eabi/6.3.0/../../../../arm-none-eabi/lib/thumb/libg.a(lib_a-locale.o)
                0x0000000002014f70                __locale_ctype_ptr
 .text.__swhatbuf_r
                0x0000000002014f90       0x64 /home/james/devkitPro/devkitARM/bin/../lib/gcc/arm-none-eabi/6.3.0/../../../../arm-none-eabi/lib/thumb/libg.a(lib_a-makebuf.o)
                0x0000000002014f90                __swhatbuf_r
 .text.__smakebuf_r
                0x0000000002014ff4       0x98 /home/james/devkitPro/devkitARM/bin/../lib/gcc/arm-none-eabi/6.3.0/../../../../arm-none-eabi/lib/thumb/libg.a(lib_a-makebuf.o)
                0x0000000002014ff4                __smakebuf_r
 .text._mbrtowc_r
                0x000000000201508c       0x8c /home/james/devkitPro/devkitARM/bin/../lib/gcc/arm-none-eabi/6.3.0/../../../../arm-none-eabi/lib/thumb/libg.a(lib_a-mbrtowc.o)
                0x000000000201508c                _mbrtowc_r
 .text.__utf8_mbtowc
                0x0000000002015118      0x2a0 /home/james/devkitPro/devkitARM/bin/../lib/gcc/arm-none-eabi/6.3.0/../../../../arm-none-eabi/lib/thumb/libg.a(lib_a-mbtowc_r.o)
                0x0000000002015118                __utf8_mbtowc
 .text.memchr   0x00000000020153b8       0x84 /home/james/devkitPro/devkitARM/bin/../lib/gcc/arm-none-eabi/6.3.0/../../../../arm-none-eabi/lib/thumb/libg.a(lib_a-memchr-stub.o)
                0x00000000020153b8                memchr
 .text.memmove  0x000000000201543c       0xa4 /home/james/devkitPro/devkitARM/bin/../lib/gcc/arm-none-eabi/6.3.0/../../../../arm-none-eabi/lib/thumb/libg.a(lib_a-memmove.o)
                0x000000000201543c                memmove
 .text._Balloc  0x00000000020154e0       0x54 /home/james/devkitPro/devkitARM/bin/../lib/gcc/arm-none-eabi/6.3.0/../../../../arm-none-eabi/lib/thumb/libg.a(lib_a-mprec.o)
                0x00000000020154e0                _Balloc
 .text._Bfree   0x0000000002015534       0x14 /home/james/devkitPro/devkitARM/bin/../lib/gcc/arm-none-eabi/6.3.0/../../../../arm-none-eabi/lib/thumb/libg.a(lib_a-mprec.o)
                0x0000000002015534                _Bfree
 .text.__multadd
                0x0000000002015548       0x94 /home/james/devkitPro/devkitARM/bin/../lib/gcc/arm-none-eabi/6.3.0/../../../../arm-none-eabi/lib/thumb/libg.a(lib_a-mprec.o)
                0x0000000002015548                __multadd
 .text.__s2b    0x00000000020155dc       0x98 /home/james/devkitPro/devkitARM/bin/../lib/gcc/arm-none-eabi/6.3.0/../../../../arm-none-eabi/lib/thumb/libg.a(lib_a-mprec.o)
                0x00000000020155dc                __s2b
 .text.__hi0bits
                0x0000000002015674       0x34 /home/james/devkitPro/devkitARM/bin/../lib/gcc/arm-none-eabi/6.3.0/../../../../arm-none-eabi/lib/thumb/libg.a(lib_a-mprec.o)
                0x0000000002015674                __hi0bits
 .text.__lo0bits
                0x00000000020156a8       0x5c /home/james/devkitPro/devkitARM/bin/../lib/gcc/arm-none-eabi/6.3.0/../../../../arm-none-eabi/lib/thumb/libg.a(lib_a-mprec.o)
                0x00000000020156a8                __lo0bits
 .text.__i2b    0x0000000002015704       0x18 /home/james/devkitPro/devkitARM/bin/../lib/gcc/arm-none-eabi/6.3.0/../../../../arm-none-eabi/lib/thumb/libg.a(lib_a-mprec.o)
                0x0000000002015704                __i2b
 .text.__multiply
                0x000000000201571c      0x160 /home/james/devkitPro/devkitARM/bin/../lib/gcc/arm-none-eabi/6.3.0/../../../../arm-none-eabi/lib/thumb/libg.a(lib_a-mprec.o)
                0x000000000201571c                __multiply
 .text.__pow5mult
                0x000000000201587c       0xc4 /home/james/devkitPro/devkitARM/bin/../lib/gcc/arm-none-eabi/6.3.0/../../../../arm-none-eabi/lib/thumb/libg.a(lib_a-mprec.o)
                0x000000000201587c                __pow5mult
 .text.__lshift
                0x0000000002015940       0xc4 /home/james/devkitPro/devkitARM/bin/../lib/gcc/arm-none-eabi/6.3.0/../../../../arm-none-eabi/lib/thumb/libg.a(lib_a-mprec.o)
                0x0000000002015940                __lshift
 .text.__mcmp   0x0000000002015a04       0x38 /home/james/devkitPro/devkitARM/bin/../lib/gcc/arm-none-eabi/6.3.0/../../../../arm-none-eabi/lib/thumb/libg.a(lib_a-mprec.o)
                0x0000000002015a04                __mcmp
 .text.__mdiff  0x0000000002015a3c      0x13c /home/james/devkitPro/devkitARM/bin/../lib/gcc/arm-none-eabi/6.3.0/../../../../arm-none-eabi/lib/thumb/libg.a(lib_a-mprec.o)
                0x0000000002015a3c                __mdiff
 .text.__ulp    0x0000000002015b78       0x50 /home/james/devkitPro/devkitARM/bin/../lib/gcc/arm-none-eabi/6.3.0/../../../../arm-none-eabi/lib/thumb/libg.a(lib_a-mprec.o)
                0x0000000002015b78                __ulp
 .text.__b2d    0x0000000002015bc8       0xdc /home/james/devkitPro/devkitARM/bin/../lib/gcc/arm-none-eabi/6.3.0/../../../../arm-none-eabi/lib/thumb/libg.a(lib_a-mprec.o)
                0x0000000002015bc8                __b2d
 .text.__d2b    0x0000000002015ca4       0xc0 /home/james/devkitPro/devkitARM/bin/../lib/gcc/arm-none-eabi/6.3.0/../../../../arm-none-eabi/lib/thumb/libg.a(lib_a-mprec.o)
                0x0000000002015ca4                __d2b
 .text.__ratio  0x0000000002015d64       0x78 /home/james/devkitPro/devkitARM/bin/../lib/gcc/arm-none-eabi/6.3.0/../../../../arm-none-eabi/lib/thumb/libg.a(lib_a-mprec.o)
                0x0000000002015d64                __ratio
 .text.__copybits
                0x0000000002015ddc       0x44 /home/james/devkitPro/devkitARM/bin/../lib/gcc/arm-none-eabi/6.3.0/../../../../arm-none-eabi/lib/thumb/libg.a(lib_a-mprec.o)
                0x0000000002015ddc                __copybits
 .text.__any_on
                0x0000000002015e20       0x64 /home/james/devkitPro/devkitARM/bin/../lib/gcc/arm-none-eabi/6.3.0/../../../../arm-none-eabi/lib/thumb/libg.a(lib_a-mprec.o)
                0x0000000002015e20                __any_on
 .text._putc_r  0x0000000002015e84       0x7c /home/james/devkitPro/devkitARM/bin/../lib/gcc/arm-none-eabi/6.3.0/../../../../arm-none-eabi/lib/thumb/libg.a(lib_a-putc.o)
                0x0000000002015e84                _putc_r
 .text._realloc_r
                0x0000000002015f00      0x38c /home/james/devkitPro/devkitARM/bin/../lib/gcc/arm-none-eabi/6.3.0/../../../../arm-none-eabi/lib/thumb/libg.a(lib_a-reallocr.o)
                0x0000000002015f00                _realloc_r
 .text.lflush   0x000000000201628c       0x20 /home/james/devkitPro/devkitARM/bin/../lib/gcc/arm-none-eabi/6.3.0/../../../../arm-none-eabi/lib/thumb/libg.a(lib_a-refill.o)
 .text.__srefill_r
                0x00000000020162ac      0x11c /home/james/devkitPro/devkitARM/bin/../lib/gcc/arm-none-eabi/6.3.0/../../../../arm-none-eabi/lib/thumb/libg.a(lib_a-refill.o)
                0x00000000020162ac                __srefill_r
 .text.__sccl   0x00000000020163c8       0x78 /home/james/devkitPro/devkitARM/bin/../lib/gcc/arm-none-eabi/6.3.0/../../../../arm-none-eabi/lib/thumb/libg.a(lib_a-sccl.o)
                0x00000000020163c8                __sccl
 .text.nanf     0x0000000002016440        0x8 /home/james/devkitPro/devkitARM/bin/../lib/gcc/arm-none-eabi/6.3.0/../../../../arm-none-eabi/lib/thumb/libg.a(lib_a-sf_nan.o)
                0x0000000002016440                nanf
 .text.frexp    0x0000000002016448       0x68 /home/james/devkitPro/devkitARM/bin/../lib/gcc/arm-none-eabi/6.3.0/../../../../arm-none-eabi/lib/thumb/libg.a(lib_a-s_frexp.o)
                0x0000000002016448                frexp
 .text.sprintf  0x00000000020164b0       0x48 /home/james/devkitPro/devkitARM/bin/../lib/gcc/arm-none-eabi/6.3.0/../../../../arm-none-eabi/lib/thumb/libg.a(lib_a-sprintf.o)
                0x00000000020164b0                sprintf
 .text.stpncpy  0x00000000020164f8       0x8c /home/james/devkitPro/devkitARM/bin/../lib/gcc/arm-none-eabi/6.3.0/../../../../arm-none-eabi/lib/thumb/libg.a(lib_a-stpncpy.o)
                0x00000000020164f8                stpncpy
 .text.strncmp  0x0000000002016584       0x94 /home/james/devkitPro/devkitARM/bin/../lib/gcc/arm-none-eabi/6.3.0/../../../../arm-none-eabi/lib/thumb/libg.a(lib_a-strncmp.o)
                0x0000000002016584                strncmp
 .text.unlikely.sulp
                0x0000000002016618       0x34 /home/james/devkitPro/devkitARM/bin/../lib/gcc/arm-none-eabi/6.3.0/../../../../arm-none-eabi/lib/thumb/libg.a(lib_a-strtod.o)
 .text._strtod_l
                0x000000000201664c      0xea0 /home/james/devkitPro/devkitARM/bin/../lib/gcc/arm-none-eabi/6.3.0/../../../../arm-none-eabi/lib/thumb/libg.a(lib_a-strtod.o)
                0x000000000201664c                _strtod_l
 .text._strtod_r
                0x00000000020174ec       0x2c /home/james/devkitPro/devkitARM/bin/../lib/gcc/arm-none-eabi/6.3.0/../../../../arm-none-eabi/lib/thumb/libg.a(lib_a-strtod.o)
                0x00000000020174ec                _strtod_r
 .text._strtoll_l.isra.0
                0x0000000002017518      0x1f0 /home/james/devkitPro/devkitARM/bin/../lib/gcc/arm-none-eabi/6.3.0/../../../../arm-none-eabi/lib/thumb/libg.a(lib_a-strtoll.o)
 .text._strtoll_r
                0x0000000002017708       0x34 /home/james/devkitPro/devkitARM/bin/../lib/gcc/arm-none-eabi/6.3.0/../../../../arm-none-eabi/lib/thumb/libg.a(lib_a-strtoll.o)
                0x0000000002017708                _strtoll_r
 .text._strtol_l.isra.0
                0x000000000201773c      0x180 /home/james/devkitPro/devkitARM/bin/../lib/gcc/arm-none-eabi/6.3.0/../../../../arm-none-eabi/lib/thumb/libg.a(lib_a-strtol.o)
 .text._strtol_r
                0x00000000020178bc       0x34 /home/james/devkitPro/devkitARM/bin/../lib/gcc/arm-none-eabi/6.3.0/../../../../arm-none-eabi/lib/thumb/libg.a(lib_a-strtol.o)
                0x00000000020178bc                _strtol_r
 .text._strtoull_l.isra.0
                0x00000000020178f0      0x1c8 /home/james/devkitPro/devkitARM/bin/../lib/gcc/arm-none-eabi/6.3.0/../../../../arm-none-eabi/lib/thumb/libg.a(lib_a-strtoull.o)
 .text._strtoull_r
                0x0000000002017ab8       0x34 /home/james/devkitPro/devkitARM/bin/../lib/gcc/arm-none-eabi/6.3.0/../../../../arm-none-eabi/lib/thumb/libg.a(lib_a-strtoull.o)
                0x0000000002017ab8                _strtoull_r
 .text._strtoul_l.isra.0
                0x0000000002017aec      0x14c /home/james/devkitPro/devkitARM/bin/../lib/gcc/arm-none-eabi/6.3.0/../../../../arm-none-eabi/lib/thumb/libg.a(lib_a-strtoul.o)
 .text._strtoul_r
                0x0000000002017c38       0x34 /home/james/devkitPro/devkitARM/bin/../lib/gcc/arm-none-eabi/6.3.0/../../../../arm-none-eabi/lib/thumb/libg.a(lib_a-strtoul.o)
                0x0000000002017c38                _strtoul_r
 .text.__ssprint_r
                0x0000000002017c6c      0x124 /home/james/devkitPro/devkitARM/bin/../lib/gcc/arm-none-eabi/6.3.0/../../../../arm-none-eabi/lib/thumb/libg.a(lib_a-svfiprintf.o)
                0x0000000002017c6c                __ssprint_r
 .text.__swbuf_r
                0x0000000002017d90       0x94 /home/james/devkitPro/devkitARM/bin/../lib/gcc/arm-none-eabi/6.3.0/../../../../arm-none-eabi/lib/thumb/libg.a(lib_a-wbuf.o)
                0x0000000002017d90                __swbuf_r
 .text._wcsnrtombs_l
                0x0000000002017e24      0x11c /home/james/devkitPro/devkitARM/bin/../lib/gcc/arm-none-eabi/6.3.0/../../../../arm-none-eabi/lib/thumb/libg.a(lib_a-wcsnrtombs.o)
                0x0000000002017e24                _wcsnrtombs_l
 .text._wcsnrtombs_r
                0x0000000002017f40       0x40 /home/james/devkitPro/devkitARM/bin/../lib/gcc/arm-none-eabi/6.3.0/../../../../arm-none-eabi/lib/thumb/libg.a(lib_a-wcsnrtombs.o)
                0x0000000002017f40                _wcsnrtombs_r
 .text.__utf8_wctomb
                0x0000000002017f80       0xbc /home/james/devkitPro/devkitARM/bin/../lib/gcc/arm-none-eabi/6.3.0/../../../../arm-none-eabi/lib/thumb/libg.a(lib_a-wctomb_r.o)
                0x0000000002017f80                __utf8_wctomb
 .text._calloc_r
                0x000000000201803c       0x5c /home/james/devkitPro/devkitARM/bin/../lib/gcc/arm-none-eabi/6.3.0/../../../../arm-none-eabi/lib/thumb/libg.a(lib_a-callocr.o)
                0x000000000201803c                _calloc_r
 .text._fclose_r
                0x0000000002018098       0xd4 /home/james/devkitPro/devkitARM/bin/../lib/gcc/arm-none-eabi/6.3.0/../../../../arm-none-eabi/lib/thumb/libg.a(lib_a-fclose.o)
                0x0000000002018098                _fclose_r
 .text.rshift   0x000000000201816c       0xb0 /home/james/devkitPro/devkitARM/bin/../lib/gcc/arm-none-eabi/6.3.0/../../../../arm-none-eabi/lib/thumb/libg.a(lib_a-gdtoa-gethex.o)
 .text.__gethex
                0x000000000201821c      0x544 /home/james/devkitPro/devkitARM/bin/../lib/gcc/arm-none-eabi/6.3.0/../../../../arm-none-eabi/lib/thumb/libg.a(lib_a-gdtoa-gethex.o)
                0x000000000201821c                __gethex
 .text.__match  0x0000000002018760       0x30 /home/james/devkitPro/devkitARM/bin/../lib/gcc/arm-none-eabi/6.3.0/../../../../arm-none-eabi/lib/thumb/libg.a(lib_a-gdtoa-hexnan.o)
                0x0000000002018760                __match
 .text.__hexnan
                0x0000000002018790      0x1b8 /home/james/devkitPro/devkitARM/bin/../lib/gcc/arm-none-eabi/6.3.0/../../../../arm-none-eabi/lib/thumb/libg.a(lib_a-gdtoa-hexnan.o)
                0x0000000002018790                __hexnan
 .text.null_write
                0x0000000002018948        0x4 /home/james/devkitPro/devkitARM/bin/../lib/gcc/arm-none-eabi/6.3.0/../../../../arm-none-eabi/lib/thumb/libsysbase.a(iosupport.o)
 .text._close_r
                0x000000000201894c       0x5c /home/james/devkitPro/devkitARM/bin/../lib/gcc/arm-none-eabi/6.3.0/../../../../arm-none-eabi/lib/thumb/libsysbase.a(close.o)
                0x000000000201894c                _close_r
 .text._fstat_r
                0x00000000020189a8       0x4c /home/james/devkitPro/devkitARM/bin/../lib/gcc/arm-none-eabi/6.3.0/../../../../arm-none-eabi/lib/thumb/libsysbase.a(fstat.o)
                0x00000000020189a8                _fstat_r
 .text._isatty_r
                0x00000000020189f4        0x4 /home/james/devkitPro/devkitARM/bin/../lib/gcc/arm-none-eabi/6.3.0/../../../../arm-none-eabi/lib/thumb/libsysbase.a(isatty.o)
                0x00000000020189f4                _isatty_r
 .text._lseek_r
                0x00000000020189f8       0x5c /home/james/devkitPro/devkitARM/bin/../lib/gcc/arm-none-eabi/6.3.0/../../../../arm-none-eabi/lib/thumb/libsysbase.a(lseek.o)
                0x00000000020189f8                _lseek_r
 .text._read_r  0x0000000002018a54       0x50 /home/james/devkitPro/devkitARM/bin/../lib/gcc/arm-none-eabi/6.3.0/../../../../arm-none-eabi/lib/thumb/libsysbase.a(read.o)
                0x0000000002018a54                _read_r
 .text._sbrk_r  0x0000000002018aa4       0x54 /home/james/devkitPro/devkitARM/bin/../lib/gcc/arm-none-eabi/6.3.0/../../../../arm-none-eabi/lib/thumb/libsysbase.a(sbrk.o)
                0x0000000002018aa4                _sbrk_r
 .text._write_r
                0x0000000002018af8       0x50 /home/james/devkitPro/devkitARM/bin/../lib/gcc/arm-none-eabi/6.3.0/../../../../arm-none-eabi/lib/thumb/libsysbase.a(write.o)
                0x0000000002018af8                _write_r
 .text.build_argv
                0x0000000002018b48       0x4c /home/james/devkitPro/devkitARM/bin/../lib/gcc/arm-none-eabi/6.3.0/../../../../arm-none-eabi/lib/thumb/libsysbase.a(build_argv.o)
                0x0000000002018b48                build_argv
 .text.__flockfile
                0x0000000002018b94       0x10 /home/james/devkitPro/devkitARM/bin/../lib/gcc/arm-none-eabi/6.3.0/../../../../arm-none-eabi/lib/thumb/libsysbase.a(flock.o)
                0x0000000002018b94                __flockfile
 .text.__funlockfile
                0x0000000002018ba4       0x10 /home/james/devkitPro/devkitARM/bin/../lib/gcc/arm-none-eabi/6.3.0/../../../../arm-none-eabi/lib/thumb/libsysbase.a(flock.o)
                0x0000000002018ba4                __funlockfile
 .text.__libc_lock_acquire
                0x0000000002018bb4       0x1c /home/james/devkitPro/devkitARM/bin/../lib/gcc/arm-none-eabi/6.3.0/../../../../arm-none-eabi/lib/thumb/libsysbase.a(syscall_support.o)
                0x0000000002018bb4                __libc_lock_acquire
 .text.__libc_lock_release
                0x0000000002018bd0       0x1c /home/james/devkitPro/devkitARM/bin/../lib/gcc/arm-none-eabi/6.3.0/../../../../arm-none-eabi/lib/thumb/libsysbase.a(syscall_support.o)
                0x0000000002018bd0                __libc_lock_release
 .text.__libc_lock_init_recursive
                0x0000000002018bec       0x1c /home/james/devkitPro/devkitARM/bin/../lib/gcc/arm-none-eabi/6.3.0/../../../../arm-none-eabi/lib/thumb/libsysbase.a(syscall_support.o)
                0x0000000002018bec                __libc_lock_init_recursive
 .text.__libc_lock_acquire_recursive
                0x0000000002018c08       0x1c /home/james/devkitPro/devkitARM/bin/../lib/gcc/arm-none-eabi/6.3.0/../../../../arm-none-eabi/lib/thumb/libsysbase.a(syscall_support.o)
                0x0000000002018c08                __libc_lock_acquire_recursive
 .text.__libc_lock_release_recursive
                0x0000000002018c24       0x1c /home/james/devkitPro/devkitARM/bin/../lib/gcc/arm-none-eabi/6.3.0/../../../../arm-none-eabi/lib/thumb/libsysbase.a(syscall_support.o)
                0x0000000002018c24                __libc_lock_release_recursive
 .text.__libc_lock_close_recursive
                0x0000000002018c40       0x1c /home/james/devkitPro/devkitARM/bin/../lib/gcc/arm-none-eabi/6.3.0/../../../../arm-none-eabi/lib/thumb/libsysbase.a(syscall_support.o)
                0x0000000002018c40                __libc_lock_close_recursive
 .text.__free_handle
                0x0000000002018c5c       0x3c /home/james/devkitPro/devkitARM/bin/../lib/gcc/arm-none-eabi/6.3.0/../../../../arm-none-eabi/lib/thumb/libsysbase.a(handle_manager.o)
                0x0000000002018c5c                __free_handle
 .text.__release_handle
                0x0000000002018c98       0x38 /home/james/devkitPro/devkitARM/bin/../lib/gcc/arm-none-eabi/6.3.0/../../../../arm-none-eabi/lib/thumb/libsysbase.a(handle_manager.o)
                0x0000000002018c98                __release_handle
 .text.__get_handle
                0x0000000002018cd0       0x1c /home/james/devkitPro/devkitARM/bin/../lib/gcc/arm-none-eabi/6.3.0/../../../../arm-none-eabi/lib/thumb/libsysbase.a(handle_manager.o)
                0x0000000002018cd0                __get_handle
 .text.__getreent
                0x0000000002018cec       0x28 /home/james/devkitPro/devkitARM/bin/../lib/gcc/arm-none-eabi/6.3.0/../../../../arm-none-eabi/lib/thumb/libsysbase.a(getreent.o)
                0x0000000002018cec                __getreent
 .text.__muldi3
                0x0000000002018d14       0x60 /home/james/devkitPro/devkitARM/bin/../lib/gcc/arm-none-eabi/6.3.0/thumb/libgcc.a(_muldi3.o)
                0x0000000002018d14                __aeabi_lmul
                0x0000000002018d14                __muldi3
 .text.__udivmoddi4
                0x0000000002018d74      0x184 /home/james/devkitPro/devkitARM/bin/../lib/gcc/arm-none-eabi/6.3.0/thumb/libgcc.a(_udivmoddi4.o)
                0x0000000002018d74                __udivmoddi4
 .text.__udivmoddi4.__stub
                0x0000000002018ef8      0x120 linker stubs
 *(EXCLUDE_FILE(*.twl*) .gnu.warning)
 *(EXCLUDE_FILE(*.twl*) .gnu.linkonce.t*)
 *(.glue_7)
 .glue_7        0x0000000002019028        0x0 linker stubs
 *(.glue_7t)
 .glue_7t       0x0000000002019028        0x0 linker stubs
                0x0000000002019028                . = ALIGN (0x4)

.vfp11_veneer   0x0000000002019028        0x0
 .vfp11_veneer  0x0000000002019028        0x0 linker stubs

.v4_bx          0x0000000002019028        0x0
 .v4_bx         0x0000000002019028        0x0 linker stubs

.iplt           0x0000000002019028        0x0
 .iplt          0x0000000002019028        0x0 /home/james/devkitPro/devkitARM/bin/../lib/gcc/arm-none-eabi/6.3.0/../../../../arm-none-eabi/lib/thumb/ds_arm9_crt0.o

.fini           0x0000000002019028        0xc
 *(.fini)
 .fini          0x0000000002019028        0x4 /home/james/devkitPro/devkitARM/bin/../lib/gcc/arm-none-eabi/6.3.0/thumb/crti.o
                0x0000000002019028                _fini
 .fini          0x000000000201902c        0x8 /home/james/devkitPro/devkitARM/bin/../lib/gcc/arm-none-eabi/6.3.0/thumb/crtn.o
                0x0000000002019034                __text_end = .

.rodata         0x0000000002019038     0xb734
 *(EXCLUDE_FILE(*.twl*) .rodata)
 .rodata        0x0000000002019038     0x2004 /home/james/devkitPro/libnds/lib/libnds9.a(default_font.bin.o)
                0x0000000002019038                default_font_bin
                0x000000000201b038                default_font_bin_end
                0x000000000201b038                default_font_bin_size
 .rodata        0x000000000201b03c     0x2d0c /home/james/devkitPro/libnds/lib/libnds9.a(keyboardGfx.o)
                0x000000000201b03c                keyboardGfxTiles
                0x000000000201d328                keyboardGfxMap
                0x000000000201dd28                keyboardGfxPal
 *all.rodata*(*)
 *(EXCLUDE_FILE(*.twl*) .roda)
 *(EXCLUDE_FILE(*.twl*) .rodata.*)
 .rodata.str1.4
                0x000000000201dd48      0x394 template.o
 .rodata.str1.1
                0x000000000201e0dc       0xad /home/james/devkitPro/libnds/lib/libdswifi9.a(wifi_arm9.o)
 .rodata.sgIP_DHCP_BeginDgram.str1.1
                0x000000000201e189        0x9 /home/james/devkitPro/libnds/lib/libdswifi9.a(sgIP_DHCP.o)
 .rodata.sgIP_DHCP_Init.str1.1
                0x000000000201e192        0xb /home/james/devkitPro/libnds/lib/libdswifi9.a(sgIP_DHCP.o)
 *fill*         0x000000000201e19d        0x3 ff
 .rodata.con_write
                0x000000000201e1a0       0xd4 /home/james/devkitPro/libnds/lib/libnds9.a(console.o)
 .rodata.con_write.str1.4
                0x000000000201e274       0x30 /home/james/devkitPro/libnds/lib/libnds9.a(console.o)
 .rodata.consoleClear.str1.4
                0x000000000201e2a4        0x5 /home/james/devkitPro/libnds/lib/libnds9.a(console.o)
 *fill*         0x000000000201e2a9        0x3 ff
 .rodata.dotab_stdout
                0x000000000201e2ac       0x68 /home/james/devkitPro/libnds/lib/libnds9.a(console.o)
 .rodata.str1.4
                0x000000000201e314       0x14 /home/james/devkitPro/libnds/lib/libnds9.a(console.o)
 .rodata.SIN_LUT
                0x000000000201e328      0x102 /home/james/devkitPro/libnds/lib/libnds9.a(trig.o)
                0x000000000201e328                SIN_LUT
 *fill*         0x000000000201e42a        0x2 ff
 .rodata.std_in
                0x000000000201e42c       0x68 /home/james/devkitPro/libnds/lib/libnds9.a(keyboard.o)
                0x000000000201e42c                std_in
 .rodata.str1.4
                0x000000000201e494        0x6 /home/james/devkitPro/libnds/lib/libnds9.a(keyboard.o)
 *fill*         0x000000000201e49a        0x2 ff
 .rodata.decompress
                0x000000000201e49c       0x14 /home/james/devkitPro/libnds/lib/libnds9.a(decompress.o)
 .rodata._perror_r.str1.4
                0x000000000201e4b0        0x3 /home/james/devkitPro/devkitARM/bin/../lib/gcc/arm-none-eabi/6.3.0/../../../../arm-none-eabi/lib/thumb/libg.a(lib_a-perror.o)
 *fill*         0x000000000201e4b3        0x1 ff
 .rodata._strerror_r
                0x000000000201e4b4      0x23c /home/james/devkitPro/devkitARM/bin/../lib/gcc/arm-none-eabi/6.3.0/../../../../arm-none-eabi/lib/thumb/libg.a(lib_a-strerror.o)
 .rodata._strerror_r.str1.4
                0x000000000201e6f0      0x6fd /home/james/devkitPro/devkitARM/bin/../lib/gcc/arm-none-eabi/6.3.0/../../../../arm-none-eabi/lib/thumb/libg.a(lib_a-strerror.o)
                                        0x701 (size before relaxing)
 *fill*         0x000000000201eded        0x3 ff
 .rodata.__ssvfiscanf_r
                0x000000000201edf0      0x324 /home/james/devkitPro/devkitARM/bin/../lib/gcc/arm-none-eabi/6.3.0/../../../../arm-none-eabi/lib/thumb/libg.a(lib_a-svfiscanf.o)
 .rodata.basefix.6811
                0x000000000201f114       0x22 /home/james/devkitPro/devkitARM/bin/../lib/gcc/arm-none-eabi/6.3.0/../../../../arm-none-eabi/lib/thumb/libg.a(lib_a-svfiscanf.o)
 *fill*         0x000000000201f136        0x2 ff
 .rodata.get_arg
                0x000000000201f138      0x938 /home/james/devkitPro/devkitARM/bin/../lib/gcc/arm-none-eabi/6.3.0/../../../../arm-none-eabi/lib/thumb/libg.a(lib_a-svfprintf.o)
 .rodata._svfprintf_r
                0x000000000201fa70      0x16c /home/james/devkitPro/devkitARM/bin/../lib/gcc/arm-none-eabi/6.3.0/../../../../arm-none-eabi/lib/thumb/libg.a(lib_a-svfprintf.o)
 .rodata._svfprintf_r.str1.4
                0x000000000201fbdc       0x42 /home/james/devkitPro/devkitARM/bin/../lib/gcc/arm-none-eabi/6.3.0/../../../../arm-none-eabi/lib/thumb/libg.a(lib_a-svfprintf.o)
 *fill*         0x000000000201fc1e        0x2 ff
 .rodata.blanks.7277
                0x000000000201fc20       0x10 /home/james/devkitPro/devkitARM/bin/../lib/gcc/arm-none-eabi/6.3.0/../../../../arm-none-eabi/lib/thumb/libg.a(lib_a-svfprintf.o)
 .rodata.zeroes.7278
                0x000000000201fc30       0x10 /home/james/devkitPro/devkitARM/bin/../lib/gcc/arm-none-eabi/6.3.0/../../../../arm-none-eabi/lib/thumb/libg.a(lib_a-svfprintf.o)
 .rodata.get_arg
                0x000000000201fc40      0x938 /home/james/devkitPro/devkitARM/bin/../lib/gcc/arm-none-eabi/6.3.0/../../../../arm-none-eabi/lib/thumb/libg.a(lib_a-vfiprintf.o)
 .rodata._vfiprintf_r
                0x0000000002020578      0x16c /home/james/devkitPro/devkitARM/bin/../lib/gcc/arm-none-eabi/6.3.0/../../../../arm-none-eabi/lib/thumb/libg.a(lib_a-vfiprintf.o)
 .rodata._vfiprintf_r.str1.4
                0x00000000020206e4       0x2f /home/james/devkitPro/devkitARM/bin/../lib/gcc/arm-none-eabi/6.3.0/../../../../arm-none-eabi/lib/thumb/libg.a(lib_a-vfiprintf.o)
 .rodata.blanks.7260
                0x00000000020206e4       0x10 /home/james/devkitPro/devkitARM/bin/../lib/gcc/arm-none-eabi/6.3.0/../../../../arm-none-eabi/lib/thumb/libg.a(lib_a-vfiprintf.o)
 .rodata.zeroes.7261
                0x00000000020206f4       0x10 /home/james/devkitPro/devkitARM/bin/../lib/gcc/arm-none-eabi/6.3.0/../../../../arm-none-eabi/lib/thumb/libg.a(lib_a-vfiprintf.o)
 .rodata.__svfscanf_r
                0x0000000002020704      0x460 /home/james/devkitPro/devkitARM/bin/../lib/gcc/arm-none-eabi/6.3.0/../../../../arm-none-eabi/lib/thumb/libg.a(lib_a-vfscanf.o)
 .rodata.__svfscanf_r.str1.4
                0x0000000002020b64        0x5 /home/james/devkitPro/devkitARM/bin/../lib/gcc/arm-none-eabi/6.3.0/../../../../arm-none-eabi/lib/thumb/libg.a(lib_a-vfscanf.o)
 *fill*         0x0000000002020b69        0x3 ff
 .rodata.basefix.7337
                0x0000000002020b6c       0x22 /home/james/devkitPro/devkitARM/bin/../lib/gcc/arm-none-eabi/6.3.0/../../../../arm-none-eabi/lib/thumb/libg.a(lib_a-vfscanf.o)
 *fill*         0x0000000002020b8e        0x2 ff
 .rodata._dtoa_r.str1.4
                0x0000000002020b90       0x10 /home/james/devkitPro/devkitARM/bin/../lib/gcc/arm-none-eabi/6.3.0/../../../../arm-none-eabi/lib/thumb/libg.a(lib_a-dtoa.o)
                                         0x12 (size before relaxing)
 .rodata._global_impure_ptr
                0x0000000002020ba0        0x4 /home/james/devkitPro/devkitARM/bin/../lib/gcc/arm-none-eabi/6.3.0/../../../../arm-none-eabi/lib/thumb/libg.a(lib_a-impure.o)
                0x0000000002020ba0                _global_impure_ptr
 .rodata.__jp2uc
                0x0000000002020ba4       0x20 /home/james/devkitPro/devkitARM/bin/../lib/gcc/arm-none-eabi/6.3.0/../../../../arm-none-eabi/lib/thumb/libg.a(lib_a-jp2uc.o)
 .rodata._jp2uc.str1.4
                0x0000000002020bc4       0x12 /home/james/devkitPro/devkitARM/bin/../lib/gcc/arm-none-eabi/6.3.0/../../../../arm-none-eabi/lib/thumb/libg.a(lib_a-jp2uc.o)
 *fill*         0x0000000002020bd6        0x2 ff
 .rodata.a1     0x0000000002020bd8       0xbc /home/james/devkitPro/devkitARM/bin/../lib/gcc/arm-none-eabi/6.3.0/../../../../arm-none-eabi/lib/thumb/libg.a(lib_a-jp2uc.o)
 .rodata.a2     0x0000000002020c94       0xbc /home/james/devkitPro/devkitARM/bin/../lib/gcc/arm-none-eabi/6.3.0/../../../../arm-none-eabi/lib/thumb/libg.a(lib_a-jp2uc.o)
 .rodata.a3     0x0000000002020d50       0x5b /home/james/devkitPro/devkitARM/bin/../lib/gcc/arm-none-eabi/6.3.0/../../../../arm-none-eabi/lib/thumb/libg.a(lib_a-jp2uc.o)
 *fill*         0x0000000002020dab        0x1 ff
 .rodata.a6     0x0000000002020dac       0x70 /home/james/devkitPro/devkitARM/bin/../lib/gcc/arm-none-eabi/6.3.0/../../../../arm-none-eabi/lib/thumb/libg.a(lib_a-jp2uc.o)
 .rodata.a7     0x0000000002020e1c       0xa2 /home/james/devkitPro/devkitARM/bin/../lib/gcc/arm-none-eabi/6.3.0/../../../../arm-none-eabi/lib/thumb/libg.a(lib_a-jp2uc.o)
 *fill*         0x0000000002020ebe        0x2 ff
 .rodata.a8     0x0000000002020ec0       0x40 /home/james/devkitPro/devkitARM/bin/../lib/gcc/arm-none-eabi/6.3.0/../../../../arm-none-eabi/lib/thumb/libg.a(lib_a-jp2uc.o)
 .rodata.b02cf  0x0000000002020f00     0x172a /home/james/devkitPro/devkitARM/bin/../lib/gcc/arm-none-eabi/6.3.0/../../../../arm-none-eabi/lib/thumb/libg.a(lib_a-jp2uc.o)
 *fill*         0x000000000202262a        0x2 ff
 .rodata.d02f4  0x000000000202262c     0x1a7c /home/james/devkitPro/devkitARM/bin/../lib/gcc/arm-none-eabi/6.3.0/../../../../arm-none-eabi/lib/thumb/libg.a(lib_a-jp2uc.o)
 .rodata.str1.4
                0x00000000020240a8       0x48 /home/james/devkitPro/devkitARM/bin/../lib/gcc/arm-none-eabi/6.3.0/../../../../arm-none-eabi/lib/thumb/libg.a(lib_a-locale.o)
                                         0x4c (size before relaxing)
 .rodata._mbrtowc_r.str1.4
                0x00000000020240f0        0x1 /home/james/devkitPro/devkitARM/bin/../lib/gcc/arm-none-eabi/6.3.0/../../../../arm-none-eabi/lib/thumb/libg.a(lib_a-mbrtowc.o)
 .rodata.__mprec_bigtens
                0x00000000020240f0       0x28 /home/james/devkitPro/devkitARM/bin/../lib/gcc/arm-none-eabi/6.3.0/../../../../arm-none-eabi/lib/thumb/libg.a(lib_a-mprec.o)
                0x00000000020240f0                __mprec_bigtens
 .rodata.__mprec_tens
                0x0000000002024118       0xc8 /home/james/devkitPro/devkitARM/bin/../lib/gcc/arm-none-eabi/6.3.0/../../../../arm-none-eabi/lib/thumb/libg.a(lib_a-mprec.o)
                0x0000000002024118                __mprec_tens
 .rodata.p05.6068
                0x00000000020241e0        0xc /home/james/devkitPro/devkitARM/bin/../lib/gcc/arm-none-eabi/6.3.0/../../../../arm-none-eabi/lib/thumb/libg.a(lib_a-mprec.o)
 .rodata._strtod_l
                0x00000000020241ec       0xd0 /home/james/devkitPro/devkitARM/bin/../lib/gcc/arm-none-eabi/6.3.0/../../../../arm-none-eabi/lib/thumb/libg.a(lib_a-strtod.o)
 .rodata._strtod_l.str1.4
                0x00000000020242bc        0xf /home/james/devkitPro/devkitARM/bin/../lib/gcc/arm-none-eabi/6.3.0/../../../../arm-none-eabi/lib/thumb/libg.a(lib_a-strtod.o)
 *fill*         0x00000000020242cb        0x1 ff
 .rodata.fpi.6154
                0x00000000020242cc       0x14 /home/james/devkitPro/devkitARM/bin/../lib/gcc/arm-none-eabi/6.3.0/../../../../arm-none-eabi/lib/thumb/libg.a(lib_a-strtod.o)
 .rodata.fpinan.6190
                0x00000000020242e0       0x14 /home/james/devkitPro/devkitARM/bin/../lib/gcc/arm-none-eabi/6.3.0/../../../../arm-none-eabi/lib/thumb/libg.a(lib_a-strtod.o)
 *fill*         0x00000000020242f4        0x4 ff
 .rodata.tinytens
                0x00000000020242f8       0x28 /home/james/devkitPro/devkitARM/bin/../lib/gcc/arm-none-eabi/6.3.0/../../../../arm-none-eabi/lib/thumb/libg.a(lib_a-strtod.o)
 .rodata.__action_table
                0x0000000002024320       0x6c /home/james/devkitPro/devkitARM/bin/../lib/gcc/arm-none-eabi/6.3.0/../../../../arm-none-eabi/lib/thumb/libg.a(lib_a-svfiprintf.o)
                0x0000000002024320                __action_table
 .rodata.__chclass
                0x000000000202438c      0x100 /home/james/devkitPro/devkitARM/bin/../lib/gcc/arm-none-eabi/6.3.0/../../../../arm-none-eabi/lib/thumb/libg.a(lib_a-svfiprintf.o)
                0x000000000202438c                __chclass
 .rodata.__state_table
                0x000000000202448c       0x6c /home/james/devkitPro/devkitARM/bin/../lib/gcc/arm-none-eabi/6.3.0/../../../../arm-none-eabi/lib/thumb/libg.a(lib_a-svfiprintf.o)
                0x000000000202448c                __state_table
 .rodata._ctype_
                0x00000000020244f8      0x101 /home/james/devkitPro/devkitARM/bin/../lib/gcc/arm-none-eabi/6.3.0/../../../../arm-none-eabi/lib/thumb/libg.a(lib_a-ctype_.o)
                0x00000000020244f8                _ctype_
 *fill*         0x00000000020245f9        0x3 ff
 .rodata.__hexdig
                0x00000000020245fc      0x100 /home/james/devkitPro/devkitARM/bin/../lib/gcc/arm-none-eabi/6.3.0/../../../../arm-none-eabi/lib/thumb/libg.a(lib_a-gdtoa-gethex.o)
                0x00000000020245fc                __hexdig
 .rodata.AddDevice.str1.4
                0x00000000020246fc        0x8 /home/james/devkitPro/devkitARM/bin/../lib/gcc/arm-none-eabi/6.3.0/../../../../arm-none-eabi/lib/thumb/libsysbase.a(iosupport.o)
 .rodata.dotab_stdnull
                0x0000000002024704       0x68 /home/james/devkitPro/devkitARM/bin/../lib/gcc/arm-none-eabi/6.3.0/../../../../arm-none-eabi/lib/thumb/libsysbase.a(iosupport.o)
                0x0000000002024704                dotab_stdnull
 *(EXCLUDE_FILE(*.twl*) .gnu.linkonce.r*)
                0x000000000202476c                . = ALIGN (0x4)

.ARM.extab
 *(.ARM.extab* .gnu.linkonce.armextab.*)
                0x000000000202476c                __exidx_start = .

ARM.exidx
 *(.ARM.exidx* .gnu.linkonce.armexidx.*)
                0x000000000202476c                __exidx_end = .
                0x000000000202476c                . = ALIGN (0x4)
                0x000000000202476c                PROVIDE (__preinit_array_start, .)

.preinit_array
 *(.preinit_array)
                0x000000000202476c                PROVIDE (__preinit_array_end, .)
                0x000000000202476c                PROVIDE (__init_array_start, .)

.init_array     0x000000000202476c        0x4
 *(SORT(.init_array.*))
 *(.init_array)
 .init_array    0x000000000202476c        0x4 /home/james/devkitPro/devkitARM/bin/../lib/gcc/arm-none-eabi/6.3.0/thumb/crtbegin.o
                0x0000000002024770                PROVIDE (__init_array_end, .)
                [!provide]                        PROVIDE (__fini_array_start, .)

.fini_array     0x0000000002024770        0x4
 *(.fini_array)
 .fini_array    0x0000000002024770        0x4 /home/james/devkitPro/devkitARM/bin/../lib/gcc/arm-none-eabi/6.3.0/thumb/crtbegin.o
 *(SORT(.fini_array.*))
                [!provide]                        PROVIDE (__fini_array_end, .)

.ctors          0x0000000002024774        0x0
 *crtbegin.o(.ctors)
 *(EXCLUDE_FILE(*crtend.o) .ctors)
 *(SORT(.ctors.*))
 *(.ctors)
                0x0000000002024774                . = ALIGN (0x4)

.dtors          0x0000000002024774        0x0
 *crtbegin.o(.dtors)
 *(EXCLUDE_FILE(*crtend.o) .dtors)
 *(SORT(.dtors.*))
 *(.dtors)
                0x0000000002024774                . = ALIGN (0x4)

.eh_frame       0x0000000002024774        0x4
 *(.eh_frame)
 .eh_frame      0x0000000002024774        0x0 /home/james/devkitPro/devkitARM/bin/../lib/gcc/arm-none-eabi/6.3.0/thumb/crtbegin.o
 .eh_frame      0x0000000002024774        0x4 /home/james/devkitPro/devkitARM/bin/../lib/gcc/arm-none-eabi/6.3.0/thumb/crtend.o
                0x0000000002024778                . = ALIGN (0x4)

.rel.dyn        0x0000000002024778        0x0
 .rel.iplt      0x0000000002024778        0x0 /home/james/devkitPro/devkitARM/bin/../lib/gcc/arm-none-eabi/6.3.0/../../../../arm-none-eabi/lib/thumb/ds_arm9_crt0.o

.gcc_except_table
                0x0000000002024778        0x0
 *(.gcc_except_table)
                0x0000000002024778                . = ALIGN (0x4)

.jcr            0x0000000002024778        0x4
 *(.jcr)
 .jcr           0x0000000002024778        0x0 /home/james/devkitPro/devkitARM/bin/../lib/gcc/arm-none-eabi/6.3.0/thumb/crtbegin.o
 .jcr           0x0000000002024778        0x4 /home/james/devkitPro/devkitARM/bin/../lib/gcc/arm-none-eabi/6.3.0/thumb/crtend.o

.got
 *(.got.plt)
 *(.got)
 *(.rel.got)

.ewram          0x000000000202477c        0x0
                0x000000000202477c                __ewram_start = ABSOLUTE (.)
 *(.ewram)
 *ewram.*(.text)
                0x000000000202477c                . = ALIGN (0x4)

.data           0x000000000202477c     0x2128
                0x000000000202477c                __data_start = ABSOLUTE (.)
 *(EXCLUDE_FILE(*.twl*) .data)
 .data          0x000000000202477c        0x4 template.o
                0x000000000202477c                portnum
 .data          0x0000000002024780       0x28 /home/james/devkitPro/libnds/lib/libnds9.a(mpu_setup.o)
 *(EXCLUDE_FILE(*.twl*) .data.*)
 .data.ASSOCSTATUS_STRINGS
                0x00000000020247a8       0x1c /home/james/devkitPro/libnds/lib/libdswifi9.a(wifi_arm9.o)
                0x00000000020247a8                ASSOCSTATUS_STRINGS
 .data.currentConsole
                0x00000000020247c4        0x4 /home/james/devkitPro/libnds/lib/libnds9.a(console.o)
                0x00000000020247c4                currentConsole
 .data.defaultConsole
                0x00000000020247c8       0x5c /home/james/devkitPro/libnds/lib/libnds9.a(console.o)
                0x00000000020247c8                defaultConsole
 .data.firstConsoleInit.6480
                0x0000000002024824        0x1 /home/james/devkitPro/libnds/lib/libnds9.a(console.o)
 *fill*         0x0000000002024825        0x3 ff
 .data.bgControl
                0x0000000002024828       0x20 /home/james/devkitPro/libnds/lib/libnds9.a(background.o)
                0x0000000002024828                bgControl
 .data.bgScrollTable
                0x0000000002024848       0x20 /home/james/devkitPro/libnds/lib/libnds9.a(background.o)
                0x0000000002024848                bgScrollTable
 .data.bgTransform
                0x0000000002024868       0x20 /home/james/devkitPro/libnds/lib/libnds9.a(background.o)
                0x0000000002024868                bgTransform
 .data.SimpleKbdLower
                0x0000000002024888      0x280 /home/james/devkitPro/libnds/lib/libnds9.a(keyboard.o)
                0x0000000002024888                SimpleKbdLower
 .data.SimpleKbdUpper
                0x0000000002024b08      0x280 /home/james/devkitPro/libnds/lib/libnds9.a(keyboard.o)
                0x0000000002024b08                SimpleKbdUpper
 .data.capsLock
                0x0000000002024d88       0x14 /home/james/devkitPro/libnds/lib/libnds9.a(keyboard.o)
                0x0000000002024d88                capsLock
 .data.curKeyboard
                0x0000000002024d9c        0x4 /home/james/devkitPro/libnds/lib/libnds9.a(keyboard.o)
                0x0000000002024d9c                curKeyboard
 .data.defaultKeyboard
                0x0000000002024da0       0x5c /home/james/devkitPro/libnds/lib/libnds9.a(keyboard.o)
                0x0000000002024da0                defaultKeyboard
 .data.lastKey  0x0000000002024dfc        0x4 /home/james/devkitPro/libnds/lib/libnds9.a(keyboard.o)
                0x0000000002024dfc                lastKey
 .data.lowerCase
                0x0000000002024e00       0x14 /home/james/devkitPro/libnds/lib/libnds9.a(keyboard.o)
                0x0000000002024e00                lowerCase
 .data.count    0x0000000002024e14        0x1 /home/james/devkitPro/libnds/lib/libnds9.a(keys.o)
 .data.delay    0x0000000002024e15        0x1 /home/james/devkitPro/libnds/lib/libnds9.a(keys.o)
 .data.repeat   0x0000000002024e16        0x1 /home/james/devkitPro/libnds/lib/libnds9.a(keys.o)
 *fill*         0x0000000002024e17        0x1 ff
 .data.fifo_buffer_free
                0x0000000002024e18        0x4 /home/james/devkitPro/libnds/lib/libnds9.a(fifosystem.o)
                0x0000000002024e18                fifo_buffer_free
 .data.fifo_freewords
                0x0000000002024e1c        0x4 /home/james/devkitPro/libnds/lib/libnds9.a(fifosystem.o)
                0x0000000002024e1c                fifo_freewords
 .data.fifo_receive_queue
                0x0000000002024e20        0x4 /home/james/devkitPro/libnds/lib/libnds9.a(fifosystem.o)
                0x0000000002024e20                fifo_receive_queue
 .data.fifo_send_queue
                0x0000000002024e24        0x4 /home/james/devkitPro/libnds/lib/libnds9.a(fifosystem.o)
                0x0000000002024e24                fifo_send_queue
 .data.decomStream
                0x0000000002024e28        0xc /home/james/devkitPro/libnds/lib/libnds9.a(decompress.o)
                0x0000000002024e28                decomStream
 .data.__malloc_av_
                0x0000000002024e34      0x408 /home/james/devkitPro/devkitARM/bin/../lib/gcc/arm-none-eabi/6.3.0/../../../../arm-none-eabi/lib/thumb/libg.a(lib_a-mallocr.o)
                0x0000000002024e34                __malloc_av_
 .data.__malloc_sbrk_base
                0x000000000202523c        0x4 /home/james/devkitPro/devkitARM/bin/../lib/gcc/arm-none-eabi/6.3.0/../../../../arm-none-eabi/lib/thumb/libg.a(lib_a-mallocr.o)
                0x000000000202523c                __malloc_sbrk_base
 .data.__malloc_trim_threshold
                0x0000000002025240        0x4 /home/james/devkitPro/devkitARM/bin/../lib/gcc/arm-none-eabi/6.3.0/../../../../arm-none-eabi/lib/thumb/libg.a(lib_a-mallocr.o)
                0x0000000002025240                __malloc_trim_threshold
 .data.__malloc_lock_object
                0x0000000002025244        0xc /home/james/devkitPro/devkitARM/bin/../lib/gcc/arm-none-eabi/6.3.0/../../../../arm-none-eabi/lib/thumb/libg.a(lib_a-mlock.o)
 .data.__sfp_lock
                0x0000000002025250        0xc /home/james/devkitPro/devkitARM/bin/../lib/gcc/arm-none-eabi/6.3.0/../../../../arm-none-eabi/lib/thumb/libg.a(lib_a-findfp.o)
 .data.__sinit_lock
                0x000000000202525c        0xc /home/james/devkitPro/devkitARM/bin/../lib/gcc/arm-none-eabi/6.3.0/../../../../arm-none-eabi/lib/thumb/libg.a(lib_a-findfp.o)
 .data._impure_ptr
                0x0000000002025268        0x4 /home/james/devkitPro/devkitARM/bin/../lib/gcc/arm-none-eabi/6.3.0/../../../../arm-none-eabi/lib/thumb/libg.a(lib_a-impure.o)
                0x0000000002025268                _impure_ptr
 *fill*         0x000000000202526c        0x4 ff
 .data.impure_data
                0x0000000002025270      0x460 /home/james/devkitPro/devkitARM/bin/../lib/gcc/arm-none-eabi/6.3.0/../../../../arm-none-eabi/lib/thumb/libg.a(lib_a-impure.o)
 .data.__global_locale
                0x00000000020256d0      0x16c /home/james/devkitPro/devkitARM/bin/../lib/gcc/arm-none-eabi/6.3.0/../../../../arm-none-eabi/lib/thumb/libg.a(lib_a-locale.o)
                0x00000000020256d0                __global_locale
 .data.devoptab_list
                0x000000000202583c       0x40 /home/james/devkitPro/devkitARM/bin/../lib/gcc/arm-none-eabi/6.3.0/../../../../arm-none-eabi/lib/thumb/libsysbase.a(iosupport.o)
                0x000000000202583c                devoptab_list
 .data.__hndl_lock
                0x000000000202587c        0x4 /home/james/devkitPro/devkitARM/bin/../lib/gcc/arm-none-eabi/6.3.0/../../../../arm-none-eabi/lib/thumb/libsysbase.a(handle_manager.o)
 .data.__stderr_handle
                0x0000000002025880        0xc /home/james/devkitPro/devkitARM/bin/../lib/gcc/arm-none-eabi/6.3.0/../../../../arm-none-eabi/lib/thumb/libsysbase.a(handle_manager.o)
 .data.__stdin_handle
                0x000000000202588c        0xc /home/james/devkitPro/devkitARM/bin/../lib/gcc/arm-none-eabi/6.3.0/../../../../arm-none-eabi/lib/thumb/libsysbase.a(handle_manager.o)
 .data.__stdout_handle
                0x0000000002025898        0xc /home/james/devkitPro/devkitARM/bin/../lib/gcc/arm-none-eabi/6.3.0/../../../../arm-none-eabi/lib/thumb/libsysbase.a(handle_manager.o)
 .data.handles  0x00000000020258a4     0x1000 /home/james/devkitPro/devkitARM/bin/../lib/gcc/arm-none-eabi/6.3.0/../../../../arm-none-eabi/lib/thumb/libsysbase.a(handle_manager.o)
 *(EXCLUDE_FILE(*.twl*) .gnu.linkonce.d*)
                0x00000000020268a4                . = ALIGN (0x4)
                0x00000000020268a4                __data_end = ABSOLUTE (.)
                0x00000000020268a4                __bss_vma = .

.igot.plt       0x00000000020268a4        0x0
 .igot.plt      0x00000000020268a4        0x0 /home/james/devkitPro/devkitARM/bin/../lib/gcc/arm-none-eabi/6.3.0/../../../../arm-none-eabi/lib/thumb/ds_arm9_crt0.o

.tm_clone_table
                0x00000000020268a4        0x0
 .tm_clone_table
                0x00000000020268a4        0x0 /home/james/devkitPro/devkitARM/bin/../lib/gcc/arm-none-eabi/6.3.0/thumb/crtbegin.o
 .tm_clone_table
                0x00000000020268a4        0x0 /home/james/devkitPro/devkitARM/bin/../lib/gcc/arm-none-eabi/6.3.0/thumb/crtend.o

.dtcm           0x000000000b000000        0x0 load address 0x00000000020268a4
                0x00000000020268a4                __dtcm_lma = LOADADDR (.dtcm)
                0x000000000b000000                __dtcm_start = ABSOLUTE (.)
 *(.dtcm)
 *(.dtcm.*)
                0x000000000b000000                . = ALIGN (0x4)
                0x000000000b000000                __dtcm_end = ABSOLUTE (.)

.itcm           0x0000000001000100      0x194 load address 0x00000000020268a4
                0x00000000020268a4                __itcm_lma = LOADADDR (.itcm)
                0x0000000001000100                __itcm_start = ABSOLUTE (.)
 *(.itcm)
 .itcm          0x0000000001000100       0xc8 /home/james/devkitPro/libnds/lib/libnds9.a(interrupts.o)
                0x0000000001000100                irqTable
 .itcm          0x00000000010001c8       0xcc /home/james/devkitPro/libnds/lib/libnds9.a(interruptDispatcher.o)
                0x00000000010001c8                IntrMain
 *.itcm*(.text .stub .text.*)
                0x0000000001000294                . = ALIGN (0x4)
                0x0000000001000294                __itcm_end = ABSOLUTE (.)

.vectors        0x0000000001000000        0x0 load address 0x0000000002026a38
                0x0000000002026a38                __vectors_lma = LOADADDR (.vectors)
                0x0000000001000000                __vectors_start = ABSOLUTE (.)
 *(.vectors)
 *.vectors*(.text .stub .text.*)
                0x0000000001000000                . = ALIGN (0x4)
                0x0000000001000000                __vectors_end = ABSOLUTE (.)

.sbss           0x000000000b000000        0x0
                0x000000000b000000                __sbss_start = ABSOLUTE (.)
                0x000000000b000000                __sbss_start__ = ABSOLUTE (.)
 *(.sbss)
                0x000000000b000000                . = ALIGN (0x4)
                0x000000000b000000                __sbss_end = ABSOLUTE (.)

.bss            0x00000000020268a4    0x11a9c
                0x00000000020268a4                __bss_start = ABSOLUTE (.)
                0x00000000020268a4                __bss_start__ = ABSOLUTE (.)
 *(EXCLUDE_FILE(*.twl*) .dynbss)
 *(EXCLUDE_FILE(*.twl*) .gnu.linkonce.b*)
 *(EXCLUDE_FILE(*.twl*) .bss*)
 .bss.completed.6497
                0x00000000020268a4        0x1 /home/james/devkitPro/devkitARM/bin/../lib/gcc/arm-none-eabi/6.3.0/thumb/crtbegin.o
 *fill*         0x00000000020268a5        0x3 
 .bss.object.6502
                0x00000000020268a8       0x18 /home/james/devkitPro/devkitARM/bin/../lib/gcc/arm-none-eabi/6.3.0/thumb/crtbegin.o
 .bss           0x00000000020268c0      0x1aa template.o
                0x0000000002026918                status
                0x000000000202692e                camera
                0x0000000002026938                touchpx
                0x000000000202693a                touchpy
                0x000000000202693c                angle
                0x000000000202693e                velocity
                0x0000000002026a68                matrix_y
 *fill*         0x0000000002026a6a        0x2 
 .bss.WifiData  0x0000000002026a6c        0x4 /home/james/devkitPro/libnds/lib/libdswifi9.a(wifi_arm9.o)
                0x0000000002026a6c                WifiData
 .bss.packethandler
                0x0000000002026a70        0x4 /home/james/devkitPro/libnds/lib/libdswifi9.a(wifi_arm9.o)
                0x0000000002026a70                packethandler
 .bss.synchandler
                0x0000000002026a74        0x4 /home/james/devkitPro/libnds/lib/libdswifi9.a(wifi_arm9.o)
                0x0000000002026a74                synchandler
 .bss.wifi_connect_state
                0x0000000002026a78        0x4 /home/james/devkitPro/libnds/lib/libdswifi9.a(wifi_arm9.o)
                0x0000000002026a78                wifi_connect_state
 .bss.keyBufferLength
                0x0000000002026a7c        0x4 /home/james/devkitPro/libnds/lib/libnds9.a(keyboard.o)
                0x0000000002026a7c                keyBufferLength
 .bss.keyBufferOffset
                0x0000000002026a80        0x4 /home/james/devkitPro/libnds/lib/libnds9.a(keyboard.o)
                0x0000000002026a80                keyBufferOffset
 .bss.oldKeys.6827
                0x0000000002026a84        0x4 /home/james/devkitPro/libnds/lib/libnds9.a(keyboard.o)
 .bss.pressed.6825
                0x0000000002026a88        0x4 /home/james/devkitPro/libnds/lib/libnds9.a(keyboard.o)
 .bss.stdioRead
                0x0000000002026a8c        0x1 /home/james/devkitPro/libnds/lib/libnds9.a(keyboard.o)
                0x0000000002026a8c                stdioRead
 *fill*         0x0000000002026a8d        0x1 
 .bss.keys      0x0000000002026a8e        0x2 /home/james/devkitPro/libnds/lib/libnds9.a(keys.o)
 .bss.keysold   0x0000000002026a90        0x2 /home/james/devkitPro/libnds/lib/libnds9.a(keys.o)
 .bss.keysrepeat
                0x0000000002026a92        0x2 /home/james/devkitPro/libnds/lib/libnds9.a(keys.o)
 .bss.__timeout
                0x0000000002026a94        0x4 /home/james/devkitPro/libnds/lib/libnds9.a(fifosystem.o)
 .bss.processing
                0x0000000002026a98        0x4 /home/james/devkitPro/libnds/lib/libnds9.a(fifosystem.o)
                0x0000000002026a98                processing
 .bss.SDcallback
                0x0000000002026a9c        0x4 /home/james/devkitPro/libnds/lib/libnds9.a(system.o)
 .bss.__malloc_current_mallinfo
                0x0000000002026aa0       0x28 /home/james/devkitPro/devkitARM/bin/../lib/gcc/arm-none-eabi/6.3.0/../../../../arm-none-eabi/lib/thumb/libg.a(lib_a-mallocr.o)
                0x0000000002026aa0                __malloc_current_mallinfo
 .bss.__malloc_max_sbrked_mem
                0x0000000002026ac8        0x4 /home/james/devkitPro/devkitARM/bin/../lib/gcc/arm-none-eabi/6.3.0/../../../../arm-none-eabi/lib/thumb/libg.a(lib_a-mallocr.o)
                0x0000000002026ac8                __malloc_max_sbrked_mem
 .bss.__malloc_max_total_mem
                0x0000000002026acc        0x4 /home/james/devkitPro/devkitARM/bin/../lib/gcc/arm-none-eabi/6.3.0/../../../../arm-none-eabi/lib/thumb/libg.a(lib_a-mallocr.o)
                0x0000000002026acc                __malloc_max_total_mem
 .bss.__malloc_top_pad
                0x0000000002026ad0        0x4 /home/james/devkitPro/devkitARM/bin/../lib/gcc/arm-none-eabi/6.3.0/../../../../arm-none-eabi/lib/thumb/libg.a(lib_a-mallocr.o)
                0x0000000002026ad0                __malloc_top_pad
 .bss.heap_start.5804
                0x0000000002026ad4        0x4 /home/james/devkitPro/devkitARM/bin/../lib/gcc/arm-none-eabi/6.3.0/../../../../arm-none-eabi/lib/thumb/libsysbase.a(sbrk.o)
 .bss.fake_heap_end
                0x0000000002026ad8        0x4 /home/james/devkitPro/devkitARM/bin/../lib/gcc/arm-none-eabi/6.3.0/../../../../arm-none-eabi/lib/thumb/libsysbase.a(malloc_vars.o)
                0x0000000002026ad8                fake_heap_end
 .bss.fake_heap_start
                0x0000000002026adc        0x4 /home/james/devkitPro/devkitARM/bin/../lib/gcc/arm-none-eabi/6.3.0/../../../../arm-none-eabi/lib/thumb/libsysbase.a(malloc_vars.o)
                0x0000000002026adc                fake_heap_start
 .bss.__syscalls
                0x0000000002026ae0       0x38 /home/james/devkitPro/devkitARM/bin/../lib/gcc/arm-none-eabi/6.3.0/../../../../arm-none-eabi/lib/thumb/libsysbase.a(syscall_support.o)
                0x0000000002026ae0                __syscalls
 *(EXCLUDE_FILE(*.twl*) COMMON)
 COMMON         0x0000000002026b18       0xec template.o
                0x0000000002026b18                touch
                0x0000000002026b24                bottomScreen
                0x0000000002026b80                ap
                0x0000000002026b84                fd
                0x0000000002026b88                servaddr
                0x0000000002026b98                myaddr
                0x0000000002026ba8                topScreen
 COMMON         0x0000000002026c04     0x9fac /home/james/devkitPro/libnds/lib/libdswifi9.a(wifi_arm9.o)
                0x0000000002026c04                Wifi_Data_Struct
                0x0000000002030b48                wifi_hw
                0x0000000002030b4c                wHeapsize
                0x0000000002030b50                wHeapFirst
                0x0000000002030b54                wifi_connect_point
                0x0000000002030bac                wHeapStart
 COMMON         0x0000000002030bb0      0x100 /home/james/devkitPro/libnds/lib/libdswifi9.a(sgIP_sockets.o)
                0x0000000002030bb0                socketlist
 COMMON         0x0000000002030cb0      0x810 /home/james/devkitPro/libnds/lib/libdswifi9.a(sgIP_TCP.o)
                0x0000000002030cb0                tcprecords
                0x0000000002030cb4                lasttime
                0x0000000002030cb8                port_counter
                0x0000000002030cbc                numsynlist
                0x0000000002030cc0                synlist
 COMMON         0x00000000020314c0       0x40 /home/james/devkitPro/libnds/lib/libdswifi9.a(sgIP_Hub.o)
                0x00000000020314c0                ProtocolInterfaces
                0x00000000020314c8                NumHWInterfaces
                0x00000000020314cc                HWInterfaces
                0x00000000020314fc                NumProtocolInterfaces
 COMMON         0x0000000002031500     0x5cb4 /home/james/devkitPro/libnds/lib/libdswifi9.a(sgIP_DNS.o)
                0x0000000002031500                dnsrecord_return
                0x0000000002031a24                time_count
                0x0000000002031a28                alias_list
                0x0000000002031a3c                querydata
                0x0000000002031c3c                responsedata
                0x0000000002031e3c                dnsrecords
                0x000000000203707c                ipaddr_ip
                0x0000000002037080                query_time_start
                0x0000000002037084                addr_list
                0x0000000002037098                ipaddr_alias
                0x0000000002037198                dns_sock
                0x000000000203719c                last_id
                0x00000000020371a0                dnsrecord_hostent
 COMMON         0x00000000020371b4       0x84 /home/james/devkitPro/libnds/lib/libdswifi9.a(sgIP_DHCP.o)
                0x00000000020371b4                dhcp_rcvd_dns
                0x00000000020371c0                dhcp_rcvd_snmask
                0x00000000020371c4                dhcp_state
                0x00000000020371c8                dhcp_p
                0x00000000020371cc                dhcp_optionptr
                0x00000000020371d0                dhcp_int
                0x00000000020371d4                dhcp_rcvd_ip
                0x00000000020371d8                dhcp_hostname
                0x0000000002037218                dhcp_serverip
                0x000000000203721c                dhcp_tid
                0x0000000002037220                dhcp_requestDNS
                0x0000000002037224                dhcp_socket
                0x0000000002037228                dhcp_timestart
                0x000000000203722c                dhcp_status
                0x0000000002037230                dhcp_rcvd_gateway
                0x0000000002037234                dhcp_timelastaction
 COMMON         0x0000000002037238        0x8 /home/james/devkitPro/libnds/lib/libdswifi9.a(sgIP_UDP.o)
                0x0000000002037238                udpport_counter
                0x000000000203723c                udprecords
 COMMON         0x0000000002037240       0x10 /home/james/devkitPro/libnds/lib/libdswifi9.a(sgIP.o)
                0x0000000002037240                count_100ms
                0x0000000002037244                count_1000ms
                0x0000000002037248                sgIP_timems
                0x000000000203724c                sgIP_errno
 COMMON         0x0000000002037250      0x400 /home/james/devkitPro/libnds/lib/libdswifi9.a(sgIP_ARP.o)
                0x0000000002037250                ArpRecords
 COMMON         0x0000000002037650        0x4 /home/james/devkitPro/libnds/lib/libdswifi9.a(sgIP_IP.o)
                0x0000000002037650                idnum_count
 COMMON         0x0000000002037654       0x5c /home/james/devkitPro/libnds/lib/libnds9.a(console.o)
                0x0000000002037654                currentCopy
 COMMON         0x00000000020376b0      0x148 /home/james/devkitPro/libnds/lib/libnds9.a(background.o)
                0x00000000020376b0                bgState
                0x00000000020377f0                bgIsTextLut
 COMMON         0x00000000020377f8      0x100 /home/james/devkitPro/libnds/lib/libnds9.a(keyboard.o)
                0x00000000020377f8                keyBuffer
 COMMON         0x00000000020378f8        0x1 /home/james/devkitPro/libnds/lib/libnds9.a(initSystem.o)
                0x00000000020378f8                __dsimode
 *fill*         0x00000000020378f9        0x3 
 COMMON         0x00000000020378fc        0x4 /home/james/devkitPro/libnds/lib/libnds9.a(timeSupport.o)
                0x00000000020378fc                punixTime
 COMMON         0x0000000002037900      0xa40 /home/james/devkitPro/libnds/lib/libnds9.a(fifosystem.o)
                0x0000000002037900                fifo_datamsg_data
                0x0000000002037940                fifo_buffer
                0x0000000002038140                fifo_value32_func
                0x0000000002038180                fifo_address_func
                0x00000000020381c0                fifo_value32_data
                0x0000000002038200                fifo_value32_queue
                0x0000000002038240                fifo_data_queue
                0x0000000002038280                fifo_address_data
                0x00000000020382c0                fifo_datamsg_func
                0x0000000002038300                fifo_address_queue
                0x0000000002038340                . = ALIGN (0x4)
                0x0000000002038340                __bss_end__ = ABSOLUTE (.)
                0x0000000002038340                __end__ = ABSOLUTE (.)

.twl            0x0000000002038340        0x0 load address 0x0000000002400000
                0x0000000002400000                __arm9i_lma__ = LOADADDR (.twl)
                0x0000000002038340                __arm9i_start__ = ABSOLUTE (.)
 *(.twl)
 *.twl*(.text .stub .text.* .gnu.linkonce.t.*)
 *.twl*(.rodata)
 *.twl*(.roda)
 *.twl*(.rodata.*)
 *.twl*(.data)
 *.twl*(.data.*)
 *.twl*(.gnu.linkonce.d*)
                0x0000000002038340                __arm9i_end__ = ABSOLUTE (.)

.twl_bss        0x0000000002038340        0x0
                0x0000000002038340                __twl_bss_start__ = ABSOLUTE (.)
 *(.twl_bss)
 *.twl*(.dynbss)
 *.twl*(.gnu.linkonce.b*)
 *.twl*(.bss*)
 *.twl*(COMMON)
                0x0000000002038340                . = ALIGN (0x4)
                0x0000000002038340                __twl_bss_end__ = ABSOLUTE (.)
                0x0000000002038340                __twl_end__ = ABSOLUTE (.)

.stab
 *(.stab)

.stabstr
 *(.stabstr)

.stab.excl
 *(.stab.excl)

.stab.exclstr
 *(.stab.exclstr)

.stab.index
 *(.stab.index)

.stab.indexstr
 *(.stab.indexstr)

.comment        0x0000000000000000       0x22
 *(.comment)
 .comment       0x0000000000000000       0x22 /home/james/devkitPro/devkitARM/bin/../lib/gcc/arm-none-eabi/6.3.0/thumb/crtbegin.o
                                         0x23 (size before relaxing)
 .comment       0x0000000000000022       0x23 template.o
 .comment       0x0000000000000022       0x23 /home/james/devkitPro/libnds/lib/libdswifi9.a(wifi_arm9.o)
 .comment       0x0000000000000022       0x23 /home/james/devkitPro/libnds/lib/libdswifi9.a(sgIP_sockets.o)
 .comment       0x0000000000000022       0x23 /home/james/devkitPro/libnds/lib/libdswifi9.a(sgIP_memblock.o)
 .comment       0x0000000000000022       0x23 /home/james/devkitPro/libnds/lib/libdswifi9.a(sgIP_TCP.o)
 .comment       0x0000000000000022       0x23 /home/james/devkitPro/libnds/lib/libdswifi9.a(sgIP_Hub.o)
 .comment       0x0000000000000022       0x23 /home/james/devkitPro/libnds/lib/libdswifi9.a(sgIP_DNS.o)
 .comment       0x0000000000000022       0x23 /home/james/devkitPro/libnds/lib/libdswifi9.a(sgIP_DHCP.o)
 .comment       0x0000000000000022       0x23 /home/james/devkitPro/libnds/lib/libdswifi9.a(sgIP_UDP.o)
 .comment       0x0000000000000022       0x23 /home/james/devkitPro/libnds/lib/libdswifi9.a(sgIP.o)
 .comment       0x0000000000000022       0x23 /home/james/devkitPro/libnds/lib/libdswifi9.a(sgIP_ARP.o)
 .comment       0x0000000000000022       0x23 /home/james/devkitPro/libnds/lib/libdswifi9.a(sgIP_IP.o)
 .comment       0x0000000000000022       0x23 /home/james/devkitPro/libnds/lib/libdswifi9.a(sgIP_ICMP.o)
 .comment       0x0000000000000022       0x23 /home/james/devkitPro/libnds/lib/libnds9.a(console.o)
 .comment       0x0000000000000022       0x23 /home/james/devkitPro/libnds/lib/libnds9.a(touch.o)
 .comment       0x0000000000000022       0x23 /home/james/devkitPro/libnds/lib/libnds9.a(background.o)
 .comment       0x0000000000000022       0x23 /home/james/devkitPro/libnds/lib/libnds9.a(trig.o)
 .comment       0x0000000000000022       0x23 /home/james/devkitPro/libnds/lib/libnds9.a(keyboard.o)
 .comment       0x0000000000000022       0x23 /home/james/devkitPro/libnds/lib/libnds9.a(keys.o)
 .comment       0x0000000000000022       0x23 /home/james/devkitPro/libnds/lib/libnds9.a(initSystem.o)
 .comment       0x0000000000000022       0x23 /home/james/devkitPro/libnds/lib/libnds9.a(timeSupport.o)
 .comment       0x0000000000000022       0x23 /home/james/devkitPro/libnds/lib/libnds9.a(securearea.o)
 .comment       0x0000000000000022       0x23 /home/james/devkitPro/libnds/lib/libnds9.a(interrupts.o)
 .comment       0x0000000000000022       0x23 /home/james/devkitPro/libnds/lib/libnds9.a(libnds_exit.arm.o)
 .comment       0x0000000000000022       0x23 /home/james/devkitPro/libnds/lib/libnds9.a(fifosystem.o)
 .comment       0x0000000000000022       0x23 /home/james/devkitPro/libnds/lib/libnds9.a(video.o)
 .comment       0x0000000000000022       0x23 /home/james/devkitPro/libnds/lib/libnds9.a(system.o)
 .comment       0x0000000000000022       0x23 /home/james/devkitPro/libnds/lib/libnds9.a(decompress.o)
 .comment       0x0000000000000022       0x23 /home/james/devkitPro/libnds/lib/libnds9.a(syscalls.o)
 .comment       0x0000000000000022       0x23 /home/james/devkitPro/devkitARM/bin/../lib/gcc/arm-none-eabi/6.3.0/../../../../arm-none-eabi/lib/thumb/libg.a(lib_a-errno.o)
 .comment       0x0000000000000022       0x23 /home/james/devkitPro/devkitARM/bin/../lib/gcc/arm-none-eabi/6.3.0/../../../../arm-none-eabi/lib/thumb/libg.a(lib_a-init.o)
 .comment       0x0000000000000022       0x23 /home/james/devkitPro/devkitARM/bin/../lib/gcc/arm-none-eabi/6.3.0/../../../../arm-none-eabi/lib/thumb/libg.a(lib_a-iprintf.o)
 .comment       0x0000000000000022       0x23 /home/james/devkitPro/devkitARM/bin/../lib/gcc/arm-none-eabi/6.3.0/../../../../arm-none-eabi/lib/thumb/libg.a(lib_a-malloc.o)
 .comment       0x0000000000000022       0x23 /home/james/devkitPro/devkitARM/bin/../lib/gcc/arm-none-eabi/6.3.0/../../../../arm-none-eabi/lib/thumb/libg.a(lib_a-mallocr.o)
 .comment       0x0000000000000022       0x23 /home/james/devkitPro/devkitARM/bin/../lib/gcc/arm-none-eabi/6.3.0/../../../../arm-none-eabi/lib/thumb/libg.a(lib_a-memcpy-stub.o)
 .comment       0x0000000000000022       0x23 /home/james/devkitPro/devkitARM/bin/../lib/gcc/arm-none-eabi/6.3.0/../../../../arm-none-eabi/lib/thumb/libg.a(lib_a-memset.o)
 .comment       0x0000000000000022       0x23 /home/james/devkitPro/devkitARM/bin/../lib/gcc/arm-none-eabi/6.3.0/../../../../arm-none-eabi/lib/thumb/libg.a(lib_a-mlock.o)
 .comment       0x0000000000000022       0x23 /home/james/devkitPro/devkitARM/bin/../lib/gcc/arm-none-eabi/6.3.0/../../../../arm-none-eabi/lib/thumb/libg.a(lib_a-perror.o)
 .comment       0x0000000000000022       0x23 /home/james/devkitPro/devkitARM/bin/../lib/gcc/arm-none-eabi/6.3.0/../../../../arm-none-eabi/lib/thumb/libg.a(lib_a-scanf.o)
 .comment       0x0000000000000022       0x23 /home/james/devkitPro/devkitARM/bin/../lib/gcc/arm-none-eabi/6.3.0/../../../../arm-none-eabi/lib/thumb/libg.a(lib_a-setvbuf.o)
 .comment       0x0000000000000022       0x23 /home/james/devkitPro/devkitARM/bin/../lib/gcc/arm-none-eabi/6.3.0/../../../../arm-none-eabi/lib/thumb/libg.a(lib_a-siscanf.o)
 .comment       0x0000000000000022       0x23 /home/james/devkitPro/devkitARM/bin/../lib/gcc/arm-none-eabi/6.3.0/../../../../arm-none-eabi/lib/thumb/libg.a(lib_a-snprintf.o)
 .comment       0x0000000000000022       0x23 /home/james/devkitPro/devkitARM/bin/../lib/gcc/arm-none-eabi/6.3.0/../../../../arm-none-eabi/lib/thumb/libg.a(lib_a-stdio.o)
 .comment       0x0000000000000022       0x23 /home/james/devkitPro/devkitARM/bin/../lib/gcc/arm-none-eabi/6.3.0/../../../../arm-none-eabi/lib/thumb/libg.a(lib_a-strcpy.o)
 .comment       0x0000000000000022       0x23 /home/james/devkitPro/devkitARM/bin/../lib/gcc/arm-none-eabi/6.3.0/../../../../arm-none-eabi/lib/thumb/libg.a(lib_a-strerror.o)
 .comment       0x0000000000000022       0x23 /home/james/devkitPro/devkitARM/bin/../lib/gcc/arm-none-eabi/6.3.0/../../../../arm-none-eabi/lib/thumb/libg.a(lib_a-strlen-stub.o)
 .comment       0x0000000000000022       0x23 /home/james/devkitPro/devkitARM/bin/../lib/gcc/arm-none-eabi/6.3.0/../../../../arm-none-eabi/lib/thumb/libg.a(lib_a-strncpy.o)
 .comment       0x0000000000000022       0x23 /home/james/devkitPro/devkitARM/bin/../lib/gcc/arm-none-eabi/6.3.0/../../../../arm-none-eabi/lib/thumb/libg.a(lib_a-svfiscanf.o)
 .comment       0x0000000000000022       0x23 /home/james/devkitPro/devkitARM/bin/../lib/gcc/arm-none-eabi/6.3.0/../../../../arm-none-eabi/lib/thumb/libg.a(lib_a-svfprintf.o)
 .comment       0x0000000000000022       0x23 /home/james/devkitPro/devkitARM/bin/../lib/gcc/arm-none-eabi/6.3.0/../../../../arm-none-eabi/lib/thumb/libg.a(lib_a-ungetc.o)
 .comment       0x0000000000000022       0x23 /home/james/devkitPro/devkitARM/bin/../lib/gcc/arm-none-eabi/6.3.0/../../../../arm-none-eabi/lib/thumb/libg.a(lib_a-u_strerr.o)
 .comment       0x0000000000000022       0x23 /home/james/devkitPro/devkitARM/bin/../lib/gcc/arm-none-eabi/6.3.0/../../../../arm-none-eabi/lib/thumb/libg.a(lib_a-vfiprintf.o)
 .comment       0x0000000000000022       0x23 /home/james/devkitPro/devkitARM/bin/../lib/gcc/arm-none-eabi/6.3.0/../../../../arm-none-eabi/lib/thumb/libg.a(lib_a-vfscanf.o)
 .comment       0x0000000000000022       0x23 /home/james/devkitPro/devkitARM/bin/../lib/gcc/arm-none-eabi/6.3.0/../../../../arm-none-eabi/lib/thumb/libg.a(lib_a-wcrtomb.o)
 .comment       0x0000000000000022       0x23 /home/james/devkitPro/devkitARM/bin/../lib/gcc/arm-none-eabi/6.3.0/../../../../arm-none-eabi/lib/thumb/libg.a(lib_a-wcsrtombs.o)
 .comment       0x0000000000000022       0x23 /home/james/devkitPro/devkitARM/bin/../lib/gcc/arm-none-eabi/6.3.0/../../../../arm-none-eabi/lib/thumb/libg.a(lib_a-wsetup.o)
 .comment       0x0000000000000022       0x23 /home/james/devkitPro/devkitARM/bin/../lib/gcc/arm-none-eabi/6.3.0/../../../../arm-none-eabi/lib/thumb/libg.a(lib_a-dtoa.o)
 .comment       0x0000000000000022       0x23 /home/james/devkitPro/devkitARM/bin/../lib/gcc/arm-none-eabi/6.3.0/../../../../arm-none-eabi/lib/thumb/libg.a(lib_a-fflush.o)
 .comment       0x0000000000000022       0x23 /home/james/devkitPro/devkitARM/bin/../lib/gcc/arm-none-eabi/6.3.0/../../../../arm-none-eabi/lib/thumb/libg.a(lib_a-findfp.o)
 .comment       0x0000000000000022       0x23 /home/james/devkitPro/devkitARM/bin/../lib/gcc/arm-none-eabi/6.3.0/../../../../arm-none-eabi/lib/thumb/libg.a(lib_a-fputc.o)
 .comment       0x0000000000000022       0x23 /home/james/devkitPro/devkitARM/bin/../lib/gcc/arm-none-eabi/6.3.0/../../../../arm-none-eabi/lib/thumb/libg.a(lib_a-fputs.o)
 .comment       0x0000000000000022       0x23 /home/james/devkitPro/devkitARM/bin/../lib/gcc/arm-none-eabi/6.3.0/../../../../arm-none-eabi/lib/thumb/libg.a(lib_a-fread.o)
 .comment       0x0000000000000022       0x23 /home/james/devkitPro/devkitARM/bin/../lib/gcc/arm-none-eabi/6.3.0/../../../../arm-none-eabi/lib/thumb/libg.a(lib_a-freer.o)
 .comment       0x0000000000000022       0x23 /home/james/devkitPro/devkitARM/bin/../lib/gcc/arm-none-eabi/6.3.0/../../../../arm-none-eabi/lib/thumb/libg.a(lib_a-fvwrite.o)
 .comment       0x0000000000000022       0x23 /home/james/devkitPro/devkitARM/bin/../lib/gcc/arm-none-eabi/6.3.0/../../../../arm-none-eabi/lib/thumb/libg.a(lib_a-fwalk.o)
 .comment       0x0000000000000022       0x23 /home/james/devkitPro/devkitARM/bin/../lib/gcc/arm-none-eabi/6.3.0/../../../../arm-none-eabi/lib/thumb/libg.a(lib_a-impure.o)
 .comment       0x0000000000000022       0x23 /home/james/devkitPro/devkitARM/bin/../lib/gcc/arm-none-eabi/6.3.0/../../../../arm-none-eabi/lib/thumb/libg.a(lib_a-iswspace.o)
 .comment       0x0000000000000022       0x23 /home/james/devkitPro/devkitARM/bin/../lib/gcc/arm-none-eabi/6.3.0/../../../../arm-none-eabi/lib/thumb/libg.a(lib_a-jp2uc.o)
 .comment       0x0000000000000022       0x23 /home/james/devkitPro/devkitARM/bin/../lib/gcc/arm-none-eabi/6.3.0/../../../../arm-none-eabi/lib/thumb/libg.a(lib_a-localeconv.o)
 .comment       0x0000000000000022       0x23 /home/james/devkitPro/devkitARM/bin/../lib/gcc/arm-none-eabi/6.3.0/../../../../arm-none-eabi/lib/thumb/libg.a(lib_a-locale.o)
 .comment       0x0000000000000022       0x23 /home/james/devkitPro/devkitARM/bin/../lib/gcc/arm-none-eabi/6.3.0/../../../../arm-none-eabi/lib/thumb/libg.a(lib_a-makebuf.o)
 .comment       0x0000000000000022       0x23 /home/james/devkitPro/devkitARM/bin/../lib/gcc/arm-none-eabi/6.3.0/../../../../arm-none-eabi/lib/thumb/libg.a(lib_a-mbrtowc.o)
 .comment       0x0000000000000022       0x23 /home/james/devkitPro/devkitARM/bin/../lib/gcc/arm-none-eabi/6.3.0/../../../../arm-none-eabi/lib/thumb/libg.a(lib_a-mbtowc_r.o)
 .comment       0x0000000000000022       0x23 /home/james/devkitPro/devkitARM/bin/../lib/gcc/arm-none-eabi/6.3.0/../../../../arm-none-eabi/lib/thumb/libg.a(lib_a-memchr-stub.o)
 .comment       0x0000000000000022       0x23 /home/james/devkitPro/devkitARM/bin/../lib/gcc/arm-none-eabi/6.3.0/../../../../arm-none-eabi/lib/thumb/libg.a(lib_a-memmove.o)
 .comment       0x0000000000000022       0x23 /home/james/devkitPro/devkitARM/bin/../lib/gcc/arm-none-eabi/6.3.0/../../../../arm-none-eabi/lib/thumb/libg.a(lib_a-mprec.o)
 .comment       0x0000000000000022       0x23 /home/james/devkitPro/devkitARM/bin/../lib/gcc/arm-none-eabi/6.3.0/../../../../arm-none-eabi/lib/thumb/libg.a(lib_a-putc.o)
 .comment       0x0000000000000022       0x23 /home/james/devkitPro/devkitARM/bin/../lib/gcc/arm-none-eabi/6.3.0/../../../../arm-none-eabi/lib/thumb/libg.a(lib_a-reallocr.o)
 .comment       0x0000000000000022       0x23 /home/james/devkitPro/devkitARM/bin/../lib/gcc/arm-none-eabi/6.3.0/../../../../arm-none-eabi/lib/thumb/libg.a(lib_a-refill.o)
 .comment       0x0000000000000022       0x23 /home/james/devkitPro/devkitARM/bin/../lib/gcc/arm-none-eabi/6.3.0/../../../../arm-none-eabi/lib/thumb/libg.a(lib_a-sccl.o)
 .comment       0x0000000000000022       0x23 /home/james/devkitPro/devkitARM/bin/../lib/gcc/arm-none-eabi/6.3.0/../../../../arm-none-eabi/lib/thumb/libg.a(lib_a-sf_nan.o)
 .comment       0x0000000000000022       0x23 /home/james/devkitPro/devkitARM/bin/../lib/gcc/arm-none-eabi/6.3.0/../../../../arm-none-eabi/lib/thumb/libg.a(lib_a-s_frexp.o)
 .comment       0x0000000000000022       0x23 /home/james/devkitPro/devkitARM/bin/../lib/gcc/arm-none-eabi/6.3.0/../../../../arm-none-eabi/lib/thumb/libg.a(lib_a-sprintf.o)
 .comment       0x0000000000000022       0x23 /home/james/devkitPro/devkitARM/bin/../lib/gcc/arm-none-eabi/6.3.0/../../../../arm-none-eabi/lib/thumb/libg.a(lib_a-stpncpy.o)
 .comment       0x0000000000000022       0x23 /home/james/devkitPro/devkitARM/bin/../lib/gcc/arm-none-eabi/6.3.0/../../../../arm-none-eabi/lib/thumb/libg.a(lib_a-strncmp.o)
 .comment       0x0000000000000022       0x23 /home/james/devkitPro/devkitARM/bin/../lib/gcc/arm-none-eabi/6.3.0/../../../../arm-none-eabi/lib/thumb/libg.a(lib_a-strtod.o)
 .comment       0x0000000000000022       0x23 /home/james/devkitPro/devkitARM/bin/../lib/gcc/arm-none-eabi/6.3.0/../../../../arm-none-eabi/lib/thumb/libg.a(lib_a-strtoll.o)
 .comment       0x0000000000000022       0x23 /home/james/devkitPro/devkitARM/bin/../lib/gcc/arm-none-eabi/6.3.0/../../../../arm-none-eabi/lib/thumb/libg.a(lib_a-strtol.o)
 .comment       0x0000000000000022       0x23 /home/james/devkitPro/devkitARM/bin/../lib/gcc/arm-none-eabi/6.3.0/../../../../arm-none-eabi/lib/thumb/libg.a(lib_a-strtoull.o)
 .comment       0x0000000000000022       0x23 /home/james/devkitPro/devkitARM/bin/../lib/gcc/arm-none-eabi/6.3.0/../../../../arm-none-eabi/lib/thumb/libg.a(lib_a-strtoul.o)
 .comment       0x0000000000000022       0x23 /home/james/devkitPro/devkitARM/bin/../lib/gcc/arm-none-eabi/6.3.0/../../../../arm-none-eabi/lib/thumb/libg.a(lib_a-svfiprintf.o)
 .comment       0x0000000000000022       0x23 /home/james/devkitPro/devkitARM/bin/../lib/gcc/arm-none-eabi/6.3.0/../../../../arm-none-eabi/lib/thumb/libg.a(lib_a-wbuf.o)
 .comment       0x0000000000000022       0x23 /home/james/devkitPro/devkitARM/bin/../lib/gcc/arm-none-eabi/6.3.0/../../../../arm-none-eabi/lib/thumb/libg.a(lib_a-wcsnrtombs.o)
 .comment       0x0000000000000022       0x23 /home/james/devkitPro/devkitARM/bin/../lib/gcc/arm-none-eabi/6.3.0/../../../../arm-none-eabi/lib/thumb/libg.a(lib_a-wctomb_r.o)
 .comment       0x0000000000000022       0x23 /home/james/devkitPro/devkitARM/bin/../lib/gcc/arm-none-eabi/6.3.0/../../../../arm-none-eabi/lib/thumb/libg.a(lib_a-callocr.o)
 .comment       0x0000000000000022       0x23 /home/james/devkitPro/devkitARM/bin/../lib/gcc/arm-none-eabi/6.3.0/../../../../arm-none-eabi/lib/thumb/libg.a(lib_a-ctype_.o)
 .comment       0x0000000000000022       0x23 /home/james/devkitPro/devkitARM/bin/../lib/gcc/arm-none-eabi/6.3.0/../../../../arm-none-eabi/lib/thumb/libg.a(lib_a-fclose.o)
 .comment       0x0000000000000022       0x23 /home/james/devkitPro/devkitARM/bin/../lib/gcc/arm-none-eabi/6.3.0/../../../../arm-none-eabi/lib/thumb/libg.a(lib_a-gdtoa-gethex.o)
 .comment       0x0000000000000022       0x23 /home/james/devkitPro/devkitARM/bin/../lib/gcc/arm-none-eabi/6.3.0/../../../../arm-none-eabi/lib/thumb/libg.a(lib_a-gdtoa-hexnan.o)
 .comment       0x0000000000000022       0x23 /home/james/devkitPro/devkitARM/bin/../lib/gcc/arm-none-eabi/6.3.0/../../../../arm-none-eabi/lib/thumb/libsysbase.a(iosupport.o)
 .comment       0x0000000000000022       0x23 /home/james/devkitPro/devkitARM/bin/../lib/gcc/arm-none-eabi/6.3.0/../../../../arm-none-eabi/lib/thumb/libsysbase.a(close.o)
 .comment       0x0000000000000022       0x23 /home/james/devkitPro/devkitARM/bin/../lib/gcc/arm-none-eabi/6.3.0/../../../../arm-none-eabi/lib/thumb/libsysbase.a(fstat.o)
 .comment       0x0000000000000022       0x23 /home/james/devkitPro/devkitARM/bin/../lib/gcc/arm-none-eabi/6.3.0/../../../../arm-none-eabi/lib/thumb/libsysbase.a(isatty.o)
 .comment       0x0000000000000022       0x23 /home/james/devkitPro/devkitARM/bin/../lib/gcc/arm-none-eabi/6.3.0/../../../../arm-none-eabi/lib/thumb/libsysbase.a(lseek.o)
 .comment       0x0000000000000022       0x23 /home/james/devkitPro/devkitARM/bin/../lib/gcc/arm-none-eabi/6.3.0/../../../../arm-none-eabi/lib/thumb/libsysbase.a(read.o)
 .comment       0x0000000000000022       0x23 /home/james/devkitPro/devkitARM/bin/../lib/gcc/arm-none-eabi/6.3.0/../../../../arm-none-eabi/lib/thumb/libsysbase.a(sbrk.o)
 .comment       0x0000000000000022       0x23 /home/james/devkitPro/devkitARM/bin/../lib/gcc/arm-none-eabi/6.3.0/../../../../arm-none-eabi/lib/thumb/libsysbase.a(write.o)
 .comment       0x0000000000000022       0x23 /home/james/devkitPro/devkitARM/bin/../lib/gcc/arm-none-eabi/6.3.0/../../../../arm-none-eabi/lib/thumb/libsysbase.a(malloc_vars.o)
 .comment       0x0000000000000022       0x23 /home/james/devkitPro/devkitARM/bin/../lib/gcc/arm-none-eabi/6.3.0/../../../../arm-none-eabi/lib/thumb/libsysbase.a(build_argv.o)
 .comment       0x0000000000000022       0x23 /home/james/devkitPro/devkitARM/bin/../lib/gcc/arm-none-eabi/6.3.0/../../../../arm-none-eabi/lib/thumb/libsysbase.a(flock.o)
 .comment       0x0000000000000022       0x23 /home/james/devkitPro/devkitARM/bin/../lib/gcc/arm-none-eabi/6.3.0/../../../../arm-none-eabi/lib/thumb/libsysbase.a(syscall_support.o)
 .comment       0x0000000000000022       0x23 /home/james/devkitPro/devkitARM/bin/../lib/gcc/arm-none-eabi/6.3.0/../../../../arm-none-eabi/lib/thumb/libsysbase.a(handle_manager.o)
 .comment       0x0000000000000022       0x23 /home/james/devkitPro/devkitARM/bin/../lib/gcc/arm-none-eabi/6.3.0/../../../../arm-none-eabi/lib/thumb/libsysbase.a(getreent.o)
 .comment       0x0000000000000022       0x23 /home/james/devkitPro/devkitARM/bin/../lib/gcc/arm-none-eabi/6.3.0/thumb/libgcc.a(_muldi3.o)
 .comment       0x0000000000000022       0x23 /home/james/devkitPro/devkitARM/bin/../lib/gcc/arm-none-eabi/6.3.0/thumb/libgcc.a(_udivmoddi4.o)
 .comment       0x0000000000000022       0x23 /home/james/devkitPro/devkitARM/bin/../lib/gcc/arm-none-eabi/6.3.0/thumb/crtend.o

.ARM.attributes
                0x0000000000000000       0x2d
 .ARM.attributes
                0x0000000000000000       0x21 /home/james/devkitPro/devkitARM/bin/../lib/gcc/arm-none-eabi/6.3.0/../../../../arm-none-eabi/lib/thumb/ds_arm9_crt0.o
 .ARM.attributes
                0x0000000000000021       0x16 /home/james/devkitPro/devkitARM/bin/../lib/gcc/arm-none-eabi/6.3.0/thumb/crti.o
 .ARM.attributes
                0x0000000000000037       0x30 /home/james/devkitPro/devkitARM/bin/../lib/gcc/arm-none-eabi/6.3.0/thumb/crtbegin.o
 .ARM.attributes
                0x0000000000000067       0x27 template.o
 .ARM.attributes
                0x000000000000008e       0x27 /home/james/devkitPro/libnds/lib/libdswifi9.a(wifi_arm9.o)
 .ARM.attributes
                0x00000000000000b5       0x27 /home/james/devkitPro/libnds/lib/libdswifi9.a(sgIP_sockets.o)
 .ARM.attributes
                0x00000000000000dc       0x27 /home/james/devkitPro/libnds/lib/libdswifi9.a(sgIP_memblock.o)
 .ARM.attributes
                0x0000000000000103       0x27 /home/james/devkitPro/libnds/lib/libdswifi9.a(sgIP_TCP.o)
 .ARM.attributes
                0x000000000000012a       0x27 /home/james/devkitPro/libnds/lib/libdswifi9.a(sgIP_Hub.o)
 .ARM.attributes
                0x0000000000000151       0x27 /home/james/devkitPro/libnds/lib/libdswifi9.a(sgIP_DNS.o)
 .ARM.attributes
                0x0000000000000178       0x21 /home/james/devkitPro/libnds/lib/libdswifi9.a(spinlock.o)
 .ARM.attributes
                0x0000000000000199       0x27 /home/james/devkitPro/libnds/lib/libdswifi9.a(sgIP_DHCP.o)
 .ARM.attributes
                0x00000000000001c0       0x27 /home/james/devkitPro/libnds/lib/libdswifi9.a(sgIP_UDP.o)
 .ARM.attributes
                0x00000000000001e7       0x27 /home/james/devkitPro/libnds/lib/libdswifi9.a(sgIP.o)
 .ARM.attributes
                0x000000000000020e       0x27 /home/james/devkitPro/libnds/lib/libdswifi9.a(sgIP_ARP.o)
 .ARM.attributes
                0x0000000000000235       0x27 /home/james/devkitPro/libnds/lib/libdswifi9.a(sgIP_IP.o)
 .ARM.attributes
                0x000000000000025c       0x27 /home/james/devkitPro/libnds/lib/libdswifi9.a(sgIP_ICMP.o)
 .ARM.attributes
                0x0000000000000283       0x2b /home/james/devkitPro/libnds/lib/libnds9.a(console.o)
 .ARM.attributes
                0x00000000000002ae       0x2b /home/james/devkitPro/libnds/lib/libnds9.a(touch.o)
 .ARM.attributes
                0x00000000000002d9       0x2b /home/james/devkitPro/libnds/lib/libnds9.a(background.o)
 .ARM.attributes
                0x0000000000000304       0x2b /home/james/devkitPro/libnds/lib/libnds9.a(trig.o)
 .ARM.attributes
                0x000000000000032f       0x2b /home/james/devkitPro/libnds/lib/libnds9.a(keyboard.o)
 .ARM.attributes
                0x000000000000035a       0x2b /home/james/devkitPro/libnds/lib/libnds9.a(keys.o)
 .ARM.attributes
                0x0000000000000385       0x2b /home/james/devkitPro/libnds/lib/libnds9.a(initSystem.o)
 .ARM.attributes
                0x00000000000003b0       0x2b /home/james/devkitPro/libnds/lib/libnds9.a(timeSupport.o)
 .ARM.attributes
                0x00000000000003db       0x2b /home/james/devkitPro/libnds/lib/libnds9.a(securearea.o)
 .ARM.attributes
                0x0000000000000406       0x2b /home/james/devkitPro/libnds/lib/libnds9.a(interrupts.o)
 .ARM.attributes
                0x0000000000000431       0x2b /home/james/devkitPro/libnds/lib/libnds9.a(libnds_exit.arm.o)
 .ARM.attributes
                0x000000000000045c       0x2b /home/james/devkitPro/libnds/lib/libnds9.a(fifosystem.o)
 .ARM.attributes
                0x0000000000000487       0x1b /home/james/devkitPro/libnds/lib/libnds9.a(dcache.o)
 .ARM.attributes
                0x00000000000004a2       0x21 /home/james/devkitPro/libnds/lib/libnds9.a(mpu_setup.o)
 .ARM.attributes
                0x00000000000004c3       0x21 /home/james/devkitPro/libnds/lib/libnds9.a(IntrWait.o)
 .ARM.attributes
                0x00000000000004e4       0x21 /home/james/devkitPro/libnds/lib/libnds9.a(cpu_clock.o)
 .ARM.attributes
                0x0000000000000505       0x1b /home/james/devkitPro/libnds/lib/libnds9.a(interruptDispatcher.o)
 .ARM.attributes
                0x0000000000000520       0x21 /home/james/devkitPro/libnds/lib/libnds9.a(swiSoftReset.o)
 .ARM.attributes
                0x0000000000000541       0x14 /home/james/devkitPro/libnds/lib/libnds9.a(default_font.bin.o)
 .ARM.attributes
                0x0000000000000555       0x1b /home/james/devkitPro/libnds/lib/libnds9.a(keyboardGfx.o)
 .ARM.attributes
                0x0000000000000570       0x2b /home/james/devkitPro/libnds/lib/libnds9.a(video.o)
 .ARM.attributes
                0x000000000000059b       0x2b /home/james/devkitPro/libnds/lib/libnds9.a(system.o)
 .ARM.attributes
                0x00000000000005c6       0x2b /home/james/devkitPro/libnds/lib/libnds9.a(decompress.o)
 .ARM.attributes
                0x00000000000005f1       0x2b /home/james/devkitPro/libnds/lib/libnds9.a(syscalls.o)
 .ARM.attributes
                0x000000000000061c       0x1b /home/james/devkitPro/libnds/lib/libnds9.a(biosCalls.o)
 .ARM.attributes
                0x0000000000000637       0x16 /home/james/devkitPro/devkitARM/bin/../lib/gcc/arm-none-eabi/6.3.0/thumb/libgcc.a(_thumb1_case_uqi.o)
 .ARM.attributes
                0x000000000000064d       0x16 /home/james/devkitPro/devkitARM/bin/../lib/gcc/arm-none-eabi/6.3.0/thumb/libgcc.a(_thumb1_case_uhi.o)
 .ARM.attributes
                0x0000000000000663       0x18 /home/james/devkitPro/devkitARM/bin/../lib/gcc/arm-none-eabi/6.3.0/thumb/libgcc.a(_udivsi3.o)
 .ARM.attributes
                0x000000000000067b       0x18 /home/james/devkitPro/devkitARM/bin/../lib/gcc/arm-none-eabi/6.3.0/thumb/libgcc.a(_divsi3.o)
 .ARM.attributes
                0x0000000000000693       0x16 /home/james/devkitPro/devkitARM/bin/../lib/gcc/arm-none-eabi/6.3.0/thumb/libgcc.a(_dvmd_tls.o)
 .ARM.attributes
                0x00000000000006a9       0x30 /home/james/devkitPro/devkitARM/bin/../lib/gcc/arm-none-eabi/6.3.0/../../../../arm-none-eabi/lib/thumb/libg.a(lib_a-errno.o)
 .ARM.attributes
                0x00000000000006d9       0x30 /home/james/devkitPro/devkitARM/bin/../lib/gcc/arm-none-eabi/6.3.0/../../../../arm-none-eabi/lib/thumb/libg.a(lib_a-init.o)
 .ARM.attributes
                0x0000000000000709       0x30 /home/james/devkitPro/devkitARM/bin/../lib/gcc/arm-none-eabi/6.3.0/../../../../arm-none-eabi/lib/thumb/libg.a(lib_a-iprintf.o)
 .ARM.attributes
                0x0000000000000739       0x30 /home/james/devkitPro/devkitARM/bin/../lib/gcc/arm-none-eabi/6.3.0/../../../../arm-none-eabi/lib/thumb/libg.a(lib_a-malloc.o)
 .ARM.attributes
                0x0000000000000769       0x30 /home/james/devkitPro/devkitARM/bin/../lib/gcc/arm-none-eabi/6.3.0/../../../../arm-none-eabi/lib/thumb/libg.a(lib_a-mallocr.o)
 .ARM.attributes
                0x0000000000000799       0x30 /home/james/devkitPro/devkitARM/bin/../lib/gcc/arm-none-eabi/6.3.0/../../../../arm-none-eabi/lib/thumb/libg.a(lib_a-memcpy-stub.o)
 .ARM.attributes
                0x00000000000007c9       0x30 /home/james/devkitPro/devkitARM/bin/../lib/gcc/arm-none-eabi/6.3.0/../../../../arm-none-eabi/lib/thumb/libg.a(lib_a-memset.o)
 .ARM.attributes
                0x00000000000007f9       0x30 /home/james/devkitPro/devkitARM/bin/../lib/gcc/arm-none-eabi/6.3.0/../../../../arm-none-eabi/lib/thumb/libg.a(lib_a-mlock.o)
 .ARM.attributes
                0x0000000000000829       0x30 /home/james/devkitPro/devkitARM/bin/../lib/gcc/arm-none-eabi/6.3.0/../../../../arm-none-eabi/lib/thumb/libg.a(lib_a-perror.o)
 .ARM.attributes
                0x0000000000000859       0x30 /home/james/devkitPro/devkitARM/bin/../lib/gcc/arm-none-eabi/6.3.0/../../../../arm-none-eabi/lib/thumb/libg.a(lib_a-scanf.o)
 .ARM.attributes
                0x0000000000000889       0x30 /home/james/devkitPro/devkitARM/bin/../lib/gcc/arm-none-eabi/6.3.0/../../../../arm-none-eabi/lib/thumb/libg.a(lib_a-setvbuf.o)
 .ARM.attributes
                0x00000000000008b9       0x30 /home/james/devkitPro/devkitARM/bin/../lib/gcc/arm-none-eabi/6.3.0/../../../../arm-none-eabi/lib/thumb/libg.a(lib_a-siscanf.o)
 .ARM.attributes
                0x00000000000008e9       0x30 /home/james/devkitPro/devkitARM/bin/../lib/gcc/arm-none-eabi/6.3.0/../../../../arm-none-eabi/lib/thumb/libg.a(lib_a-snprintf.o)
 .ARM.attributes
                0x0000000000000919       0x30 /home/james/devkitPro/devkitARM/bin/../lib/gcc/arm-none-eabi/6.3.0/../../../../arm-none-eabi/lib/thumb/libg.a(lib_a-stdio.o)
 .ARM.attributes
                0x0000000000000949       0x30 /home/james/devkitPro/devkitARM/bin/../lib/gcc/arm-none-eabi/6.3.0/../../../../arm-none-eabi/lib/thumb/libg.a(lib_a-strcpy.o)
 .ARM.attributes
                0x0000000000000979       0x30 /home/james/devkitPro/devkitARM/bin/../lib/gcc/arm-none-eabi/6.3.0/../../../../arm-none-eabi/lib/thumb/libg.a(lib_a-strerror.o)
 .ARM.attributes
                0x00000000000009a9       0x30 /home/james/devkitPro/devkitARM/bin/../lib/gcc/arm-none-eabi/6.3.0/../../../../arm-none-eabi/lib/thumb/libg.a(lib_a-strlen-stub.o)
 .ARM.attributes
                0x00000000000009d9       0x30 /home/james/devkitPro/devkitARM/bin/../lib/gcc/arm-none-eabi/6.3.0/../../../../arm-none-eabi/lib/thumb/libg.a(lib_a-strncpy.o)
 .ARM.attributes
                0x0000000000000a09       0x30 /home/james/devkitPro/devkitARM/bin/../lib/gcc/arm-none-eabi/6.3.0/../../../../arm-none-eabi/lib/thumb/libg.a(lib_a-svfiscanf.o)
 .ARM.attributes
                0x0000000000000a39       0x30 /home/james/devkitPro/devkitARM/bin/../lib/gcc/arm-none-eabi/6.3.0/../../../../arm-none-eabi/lib/thumb/libg.a(lib_a-svfprintf.o)
 .ARM.attributes
                0x0000000000000a69       0x30 /home/james/devkitPro/devkitARM/bin/../lib/gcc/arm-none-eabi/6.3.0/../../../../arm-none-eabi/lib/thumb/libg.a(lib_a-ungetc.o)
 .ARM.attributes
                0x0000000000000a99       0x30 /home/james/devkitPro/devkitARM/bin/../lib/gcc/arm-none-eabi/6.3.0/../../../../arm-none-eabi/lib/thumb/libg.a(lib_a-u_strerr.o)
 .ARM.attributes
                0x0000000000000ac9       0x30 /home/james/devkitPro/devkitARM/bin/../lib/gcc/arm-none-eabi/6.3.0/../../../../arm-none-eabi/lib/thumb/libg.a(lib_a-vfiprintf.o)
 .ARM.attributes
                0x0000000000000af9       0x30 /home/james/devkitPro/devkitARM/bin/../lib/gcc/arm-none-eabi/6.3.0/../../../../arm-none-eabi/lib/thumb/libg.a(lib_a-vfscanf.o)
 .ARM.attributes
                0x0000000000000b29       0x30 /home/james/devkitPro/devkitARM/bin/../lib/gcc/arm-none-eabi/6.3.0/../../../../arm-none-eabi/lib/thumb/libg.a(lib_a-wcrtomb.o)
 .ARM.attributes
                0x0000000000000b59       0x30 /home/james/devkitPro/devkitARM/bin/../lib/gcc/arm-none-eabi/6.3.0/../../../../arm-none-eabi/lib/thumb/libg.a(lib_a-wcsrtombs.o)
 .ARM.attributes
                0x0000000000000b89       0x30 /home/james/devkitPro/devkitARM/bin/../lib/gcc/arm-none-eabi/6.3.0/../../../../arm-none-eabi/lib/thumb/libg.a(lib_a-wsetup.o)
 .ARM.attributes
                0x0000000000000bb9       0x30 /home/james/devkitPro/devkitARM/bin/../lib/gcc/arm-none-eabi/6.3.0/../../../../arm-none-eabi/lib/thumb/libg.a(lib_a-dtoa.o)
 .ARM.attributes
                0x0000000000000be9       0x30 /home/james/devkitPro/devkitARM/bin/../lib/gcc/arm-none-eabi/6.3.0/../../../../arm-none-eabi/lib/thumb/libg.a(lib_a-fflush.o)
 .ARM.attributes
                0x0000000000000c19       0x30 /home/james/devkitPro/devkitARM/bin/../lib/gcc/arm-none-eabi/6.3.0/../../../../arm-none-eabi/lib/thumb/libg.a(lib_a-findfp.o)
 .ARM.attributes
                0x0000000000000c49       0x30 /home/james/devkitPro/devkitARM/bin/../lib/gcc/arm-none-eabi/6.3.0/../../../../arm-none-eabi/lib/thumb/libg.a(lib_a-fputc.o)
 .ARM.attributes
                0x0000000000000c79       0x30 /home/james/devkitPro/devkitARM/bin/../lib/gcc/arm-none-eabi/6.3.0/../../../../arm-none-eabi/lib/thumb/libg.a(lib_a-fputs.o)
 .ARM.attributes
                0x0000000000000ca9       0x30 /home/james/devkitPro/devkitARM/bin/../lib/gcc/arm-none-eabi/6.3.0/../../../../arm-none-eabi/lib/thumb/libg.a(lib_a-fread.o)
 .ARM.attributes
                0x0000000000000cd9       0x30 /home/james/devkitPro/devkitARM/bin/../lib/gcc/arm-none-eabi/6.3.0/../../../../arm-none-eabi/lib/thumb/libg.a(lib_a-freer.o)
 .ARM.attributes
                0x0000000000000d09       0x30 /home/james/devkitPro/devkitARM/bin/../lib/gcc/arm-none-eabi/6.3.0/../../../../arm-none-eabi/lib/thumb/libg.a(lib_a-fvwrite.o)
 .ARM.attributes
                0x0000000000000d39       0x30 /home/james/devkitPro/devkitARM/bin/../lib/gcc/arm-none-eabi/6.3.0/../../../../arm-none-eabi/lib/thumb/libg.a(lib_a-fwalk.o)
 .ARM.attributes
                0x0000000000000d69       0x30 /home/james/devkitPro/devkitARM/bin/../lib/gcc/arm-none-eabi/6.3.0/../../../../arm-none-eabi/lib/thumb/libg.a(lib_a-impure.o)
 .ARM.attributes
                0x0000000000000d99       0x30 /home/james/devkitPro/devkitARM/bin/../lib/gcc/arm-none-eabi/6.3.0/../../../../arm-none-eabi/lib/thumb/libg.a(lib_a-iswspace.o)
 .ARM.attributes
                0x0000000000000dc9       0x30 /home/james/devkitPro/devkitARM/bin/../lib/gcc/arm-none-eabi/6.3.0/../../../../arm-none-eabi/lib/thumb/libg.a(lib_a-jp2uc.o)
 .ARM.attributes
                0x0000000000000df9       0x30 /home/james/devkitPro/devkitARM/bin/../lib/gcc/arm-none-eabi/6.3.0/../../../../arm-none-eabi/lib/thumb/libg.a(lib_a-localeconv.o)
 .ARM.attributes
                0x0000000000000e29       0x30 /home/james/devkitPro/devkitARM/bin/../lib/gcc/arm-none-eabi/6.3.0/../../../../arm-none-eabi/lib/thumb/libg.a(lib_a-locale.o)
 .ARM.attributes
                0x0000000000000e59       0x30 /home/james/devkitPro/devkitARM/bin/../lib/gcc/arm-none-eabi/6.3.0/../../../../arm-none-eabi/lib/thumb/libg.a(lib_a-makebuf.o)
 .ARM.attributes
                0x0000000000000e89       0x30 /home/james/devkitPro/devkitARM/bin/../lib/gcc/arm-none-eabi/6.3.0/../../../../arm-none-eabi/lib/thumb/libg.a(lib_a-mbrtowc.o)
 .ARM.attributes
                0x0000000000000eb9       0x30 /home/james/devkitPro/devkitARM/bin/../lib/gcc/arm-none-eabi/6.3.0/../../../../arm-none-eabi/lib/thumb/libg.a(lib_a-mbtowc_r.o)
 .ARM.attributes
                0x0000000000000ee9       0x30 /home/james/devkitPro/devkitARM/bin/../lib/gcc/arm-none-eabi/6.3.0/../../../../arm-none-eabi/lib/thumb/libg.a(lib_a-memchr-stub.o)
 .ARM.attributes
                0x0000000000000f19       0x30 /home/james/devkitPro/devkitARM/bin/../lib/gcc/arm-none-eabi/6.3.0/../../../../arm-none-eabi/lib/thumb/libg.a(lib_a-memmove.o)
 .ARM.attributes
                0x0000000000000f49       0x30 /home/james/devkitPro/devkitARM/bin/../lib/gcc/arm-none-eabi/6.3.0/../../../../arm-none-eabi/lib/thumb/libg.a(lib_a-mprec.o)
 .ARM.attributes
                0x0000000000000f79       0x30 /home/james/devkitPro/devkitARM/bin/../lib/gcc/arm-none-eabi/6.3.0/../../../../arm-none-eabi/lib/thumb/libg.a(lib_a-putc.o)
 .ARM.attributes
                0x0000000000000fa9       0x30 /home/james/devkitPro/devkitARM/bin/../lib/gcc/arm-none-eabi/6.3.0/../../../../arm-none-eabi/lib/thumb/libg.a(lib_a-reallocr.o)
 .ARM.attributes
                0x0000000000000fd9       0x30 /home/james/devkitPro/devkitARM/bin/../lib/gcc/arm-none-eabi/6.3.0/../../../../arm-none-eabi/lib/thumb/libg.a(lib_a-refill.o)
 .ARM.attributes
                0x0000000000001009       0x30 /home/james/devkitPro/devkitARM/bin/../lib/gcc/arm-none-eabi/6.3.0/../../../../arm-none-eabi/lib/thumb/libg.a(lib_a-sccl.o)
 .ARM.attributes
                0x0000000000001039       0x30 /home/james/devkitPro/devkitARM/bin/../lib/gcc/arm-none-eabi/6.3.0/../../../../arm-none-eabi/lib/thumb/libg.a(lib_a-sf_nan.o)
 .ARM.attributes
                0x0000000000001069       0x30 /home/james/devkitPro/devkitARM/bin/../lib/gcc/arm-none-eabi/6.3.0/../../../../arm-none-eabi/lib/thumb/libg.a(lib_a-s_frexp.o)
 .ARM.attributes
                0x0000000000001099       0x30 /home/james/devkitPro/devkitARM/bin/../lib/gcc/arm-none-eabi/6.3.0/../../../../arm-none-eabi/lib/thumb/libg.a(lib_a-sprintf.o)
 .ARM.attributes
                0x00000000000010c9       0x30 /home/james/devkitPro/devkitARM/bin/../lib/gcc/arm-none-eabi/6.3.0/../../../../arm-none-eabi/lib/thumb/libg.a(lib_a-stpncpy.o)
 .ARM.attributes
                0x00000000000010f9       0x16 /home/james/devkitPro/devkitARM/bin/../lib/gcc/arm-none-eabi/6.3.0/../../../../arm-none-eabi/lib/thumb/libg.a(lib_a-strcmp.o)
 .ARM.attributes
                0x000000000000110f       0x30 /home/james/devkitPro/devkitARM/bin/../lib/gcc/arm-none-eabi/6.3.0/../../../../arm-none-eabi/lib/thumb/libg.a(lib_a-strncmp.o)
 .ARM.attributes
                0x000000000000113f       0x30 /home/james/devkitPro/devkitARM/bin/../lib/gcc/arm-none-eabi/6.3.0/../../../../arm-none-eabi/lib/thumb/libg.a(lib_a-strtod.o)
 .ARM.attributes
                0x000000000000116f       0x30 /home/james/devkitPro/devkitARM/bin/../lib/gcc/arm-none-eabi/6.3.0/../../../../arm-none-eabi/lib/thumb/libg.a(lib_a-strtoll.o)
 .ARM.attributes
                0x000000000000119f       0x30 /home/james/devkitPro/devkitARM/bin/../lib/gcc/arm-none-eabi/6.3.0/../../../../arm-none-eabi/lib/thumb/libg.a(lib_a-strtol.o)
 .ARM.attributes
                0x00000000000011cf       0x30 /home/james/devkitPro/devkitARM/bin/../lib/gcc/arm-none-eabi/6.3.0/../../../../arm-none-eabi/lib/thumb/libg.a(lib_a-strtoull.o)
 .ARM.attributes
                0x00000000000011ff       0x30 /home/james/devkitPro/devkitARM/bin/../lib/gcc/arm-none-eabi/6.3.0/../../../../arm-none-eabi/lib/thumb/libg.a(lib_a-strtoul.o)
 .ARM.attributes
                0x000000000000122f       0x30 /home/james/devkitPro/devkitARM/bin/../lib/gcc/arm-none-eabi/6.3.0/../../../../arm-none-eabi/lib/thumb/libg.a(lib_a-svfiprintf.o)
 .ARM.attributes
                0x000000000000125f       0x30 /home/james/devkitPro/devkitARM/bin/../lib/gcc/arm-none-eabi/6.3.0/../../../../arm-none-eabi/lib/thumb/libg.a(lib_a-wbuf.o)
 .ARM.attributes
                0x000000000000128f       0x30 /home/james/devkitPro/devkitARM/bin/../lib/gcc/arm-none-eabi/6.3.0/../../../../arm-none-eabi/lib/thumb/libg.a(lib_a-wcsnrtombs.o)
 .ARM.attributes
                0x00000000000012bf       0x30 /home/james/devkitPro/devkitARM/bin/../lib/gcc/arm-none-eabi/6.3.0/../../../../arm-none-eabi/lib/thumb/libg.a(lib_a-wctomb_r.o)
 .ARM.attributes
                0x00000000000012ef       0x30 /home/james/devkitPro/devkitARM/bin/../lib/gcc/arm-none-eabi/6.3.0/../../../../arm-none-eabi/lib/thumb/libg.a(lib_a-callocr.o)
 .ARM.attributes
                0x000000000000131f       0x30 /home/james/devkitPro/devkitARM/bin/../lib/gcc/arm-none-eabi/6.3.0/../../../../arm-none-eabi/lib/thumb/libg.a(lib_a-ctype_.o)
 .ARM.attributes
                0x000000000000134f       0x30 /home/james/devkitPro/devkitARM/bin/../lib/gcc/arm-none-eabi/6.3.0/../../../../arm-none-eabi/lib/thumb/libg.a(lib_a-fclose.o)
 .ARM.attributes
                0x000000000000137f       0x30 /home/james/devkitPro/devkitARM/bin/../lib/gcc/arm-none-eabi/6.3.0/../../../../arm-none-eabi/lib/thumb/libg.a(lib_a-gdtoa-gethex.o)
 .ARM.attributes
                0x00000000000013af       0x30 /home/james/devkitPro/devkitARM/bin/../lib/gcc/arm-none-eabi/6.3.0/../../../../arm-none-eabi/lib/thumb/libg.a(lib_a-gdtoa-hexnan.o)
 .ARM.attributes
                0x00000000000013df       0x30 /home/james/devkitPro/devkitARM/bin/../lib/gcc/arm-none-eabi/6.3.0/../../../../arm-none-eabi/lib/thumb/libsysbase.a(iosupport.o)
 .ARM.attributes
                0x000000000000140f       0x30 /home/james/devkitPro/devkitARM/bin/../lib/gcc/arm-none-eabi/6.3.0/../../../../arm-none-eabi/lib/thumb/libsysbase.a(close.o)
 .ARM.attributes
                0x000000000000143f       0x30 /home/james/devkitPro/devkitARM/bin/../lib/gcc/arm-none-eabi/6.3.0/../../../../arm-none-eabi/lib/thumb/libsysbase.a(fstat.o)
 .ARM.attributes
                0x000000000000146f       0x30 /home/james/devkitPro/devkitARM/bin/../lib/gcc/arm-none-eabi/6.3.0/../../../../arm-none-eabi/lib/thumb/libsysbase.a(isatty.o)
 .ARM.attributes
                0x000000000000149f       0x30 /home/james/devkitPro/devkitARM/bin/../lib/gcc/arm-none-eabi/6.3.0/../../../../arm-none-eabi/lib/thumb/libsysbase.a(lseek.o)
 .ARM.attributes
                0x00000000000014cf       0x30 /home/james/devkitPro/devkitARM/bin/../lib/gcc/arm-none-eabi/6.3.0/../../../../arm-none-eabi/lib/thumb/libsysbase.a(read.o)
 .ARM.attributes
                0x00000000000014ff       0x30 /home/james/devkitPro/devkitARM/bin/../lib/gcc/arm-none-eabi/6.3.0/../../../../arm-none-eabi/lib/thumb/libsysbase.a(sbrk.o)
 .ARM.attributes
                0x000000000000152f       0x30 /home/james/devkitPro/devkitARM/bin/../lib/gcc/arm-none-eabi/6.3.0/../../../../arm-none-eabi/lib/thumb/libsysbase.a(write.o)
 .ARM.attributes
                0x000000000000155f       0x30 /home/james/devkitPro/devkitARM/bin/../lib/gcc/arm-none-eabi/6.3.0/../../../../arm-none-eabi/lib/thumb/libsysbase.a(malloc_vars.o)
 .ARM.attributes
                0x000000000000158f       0x30 /home/james/devkitPro/devkitARM/bin/../lib/gcc/arm-none-eabi/6.3.0/../../../../arm-none-eabi/lib/thumb/libsysbase.a(build_argv.o)
 .ARM.attributes
                0x00000000000015bf       0x30 /home/james/devkitPro/devkitARM/bin/../lib/gcc/arm-none-eabi/6.3.0/../../../../arm-none-eabi/lib/thumb/libsysbase.a(flock.o)
 .ARM.attributes
                0x00000000000015ef       0x30 /home/james/devkitPro/devkitARM/bin/../lib/gcc/arm-none-eabi/6.3.0/../../../../arm-none-eabi/lib/thumb/libsysbase.a(syscall_support.o)
 .ARM.attributes
                0x000000000000161f       0x30 /home/james/devkitPro/devkitARM/bin/../lib/gcc/arm-none-eabi/6.3.0/../../../../arm-none-eabi/lib/thumb/libsysbase.a(handle_manager.o)
 .ARM.attributes
                0x000000000000164f       0x30 /home/james/devkitPro/devkitARM/bin/../lib/gcc/arm-none-eabi/6.3.0/../../../../arm-none-eabi/lib/thumb/libsysbase.a(getreent.o)
 .ARM.attributes
                0x000000000000167f       0x18 /home/james/devkitPro/devkitARM/bin/../lib/gcc/arm-none-eabi/6.3.0/thumb/libgcc.a(_arm_addsubdf3.o)
 .ARM.attributes
                0x0000000000001697       0x18 /home/james/devkitPro/devkitARM/bin/../lib/gcc/arm-none-eabi/6.3.0/thumb/libgcc.a(_arm_muldivdf3.o)
 .ARM.attributes
                0x00000000000016af       0x18 /home/james/devkitPro/devkitARM/bin/../lib/gcc/arm-none-eabi/6.3.0/thumb/libgcc.a(_arm_cmpdf2.o)
 .ARM.attributes
                0x00000000000016c7       0x18 /home/james/devkitPro/devkitARM/bin/../lib/gcc/arm-none-eabi/6.3.0/thumb/libgcc.a(_arm_unorddf2.o)
 .ARM.attributes
                0x00000000000016df       0x18 /home/james/devkitPro/devkitARM/bin/../lib/gcc/arm-none-eabi/6.3.0/thumb/libgcc.a(_arm_fixdfsi.o)
 .ARM.attributes
                0x00000000000016f7       0x18 /home/james/devkitPro/devkitARM/bin/../lib/gcc/arm-none-eabi/6.3.0/thumb/libgcc.a(_arm_fixunsdfsi.o)
 .ARM.attributes
                0x000000000000170f       0x18 /home/james/devkitPro/devkitARM/bin/../lib/gcc/arm-none-eabi/6.3.0/thumb/libgcc.a(_arm_truncdfsf2.o)
 .ARM.attributes
                0x0000000000001727       0x18 /home/james/devkitPro/devkitARM/bin/../lib/gcc/arm-none-eabi/6.3.0/thumb/libgcc.a(_aeabi_uldivmod.o)
 .ARM.attributes
                0x000000000000173f       0x30 /home/james/devkitPro/devkitARM/bin/../lib/gcc/arm-none-eabi/6.3.0/thumb/libgcc.a(_muldi3.o)
 .ARM.attributes
                0x000000000000176f       0x30 /home/james/devkitPro/devkitARM/bin/../lib/gcc/arm-none-eabi/6.3.0/thumb/libgcc.a(_udivmoddi4.o)
 .ARM.attributes
                0x000000000000179f       0x18 /home/james/devkitPro/devkitARM/bin/../lib/gcc/arm-none-eabi/6.3.0/thumb/libgcc.a(_clzdi2.o)
 .ARM.attributes
                0x00000000000017b7       0x18 /home/james/devkitPro/devkitARM/bin/../lib/gcc/arm-none-eabi/6.3.0/thumb/libgcc.a(_clzsi2.o)
 .ARM.attributes
                0x00000000000017cf       0x30 /home/james/devkitPro/devkitARM/bin/../lib/gcc/arm-none-eabi/6.3.0/thumb/crtend.o
 .ARM.attributes
                0x00000000000017ff       0x16 /home/james/devkitPro/devkitARM/bin/../lib/gcc/arm-none-eabi/6.3.0/thumb/crtn.o

.debug
 *(.debug)

.line
 *(.line)

.debug_srcinfo
 *(.debug_srcinfo)

.debug_sfnames
 *(.debug_sfnames)

.debug_aranges  0x0000000000000000      0xcf0
 *(.debug_aranges)
 .debug_aranges
                0x0000000000000000       0x28 template.o
 .debug_aranges
                0x0000000000000028      0x180 /home/james/devkitPro/libnds/lib/libdswifi9.a(wifi_arm9.o)
 .debug_aranges
                0x00000000000001a8       0xd0 /home/james/devkitPro/libnds/lib/libdswifi9.a(sgIP_sockets.o)
 .debug_aranges
                0x0000000000000278       0x68 /home/james/devkitPro/libnds/lib/libdswifi9.a(sgIP_memblock.o)
 .debug_aranges
                0x00000000000002e0       0xb0 /home/james/devkitPro/libnds/lib/libdswifi9.a(sgIP_TCP.o)
 .debug_aranges
                0x0000000000000390       0x80 /home/james/devkitPro/libnds/lib/libdswifi9.a(sgIP_Hub.o)
 .debug_aranges
                0x0000000000000410       0x78 /home/james/devkitPro/libnds/lib/libdswifi9.a(sgIP_DNS.o)
 .debug_aranges
                0x0000000000000488       0x20 /home/james/devkitPro/libnds/lib/libdswifi9.a(spinlock.o)
 .debug_aranges
                0x00000000000004a8       0x70 /home/james/devkitPro/libnds/lib/libdswifi9.a(sgIP_DHCP.o)
 .debug_aranges
                0x0000000000000518       0x68 /home/james/devkitPro/libnds/lib/libdswifi9.a(sgIP_UDP.o)
 .debug_aranges
                0x0000000000000580       0x28 /home/james/devkitPro/libnds/lib/libdswifi9.a(sgIP.o)
 .debug_aranges
                0x00000000000005a8       0x80 /home/james/devkitPro/libnds/lib/libdswifi9.a(sgIP_ARP.o)
 .debug_aranges
                0x0000000000000628       0x40 /home/james/devkitPro/libnds/lib/libdswifi9.a(sgIP_IP.o)
 .debug_aranges
                0x0000000000000668       0x28 /home/james/devkitPro/libnds/lib/libdswifi9.a(sgIP_ICMP.o)
 .debug_aranges
                0x0000000000000690       0x88 /home/james/devkitPro/libnds/lib/libnds9.a(console.o)
 .debug_aranges
                0x0000000000000718       0x28 /home/james/devkitPro/libnds/lib/libnds9.a(touch.o)
 .debug_aranges
                0x0000000000000740       0x48 /home/james/devkitPro/libnds/lib/libnds9.a(background.o)
 .debug_aranges
                0x0000000000000788       0x60 /home/james/devkitPro/libnds/lib/libnds9.a(trig.o)
 .debug_aranges
                0x00000000000007e8       0x78 /home/james/devkitPro/libnds/lib/libnds9.a(keyboard.o)
 .debug_aranges
                0x0000000000000860       0x50 /home/james/devkitPro/libnds/lib/libnds9.a(keys.o)
 .debug_aranges
                0x00000000000008b0       0x20 /home/james/devkitPro/libnds/lib/libnds9.a(initSystem.o)
 .debug_aranges
                0x00000000000008d0       0x20 /home/james/devkitPro/libnds/lib/libnds9.a(timeSupport.o)
 .debug_aranges
                0x00000000000008f0       0x18 /home/james/devkitPro/libnds/lib/libnds9.a(securearea.o)
 .debug_aranges
                0x0000000000000908       0x50 /home/james/devkitPro/libnds/lib/libnds9.a(interrupts.o)
 .debug_aranges
                0x0000000000000958       0x28 /home/james/devkitPro/libnds/lib/libnds9.a(libnds_exit.arm.o)
 .debug_aranges
                0x0000000000000980       0xc0 /home/james/devkitPro/libnds/lib/libnds9.a(fifosystem.o)
 .debug_aranges
                0x0000000000000a40       0x38 /home/james/devkitPro/libnds/lib/libnds9.a(dcache.o)
 .debug_aranges
                0x0000000000000a78       0x30 /home/james/devkitPro/libnds/lib/libnds9.a(mpu_setup.o)
 .debug_aranges
                0x0000000000000aa8       0x28 /home/james/devkitPro/libnds/lib/libnds9.a(IntrWait.o)
 .debug_aranges
                0x0000000000000ad0       0x20 /home/james/devkitPro/libnds/lib/libnds9.a(cpu_clock.o)
 .debug_aranges
                0x0000000000000af0       0x20 /home/james/devkitPro/libnds/lib/libnds9.a(interruptDispatcher.o)
 .debug_aranges
                0x0000000000000b10       0x20 /home/james/devkitPro/libnds/lib/libnds9.a(swiSoftReset.o)
 .debug_aranges
                0x0000000000000b30       0x48 /home/james/devkitPro/libnds/lib/libnds9.a(video.o)
 .debug_aranges
                0x0000000000000b78       0x58 /home/james/devkitPro/libnds/lib/libnds9.a(system.o)
 .debug_aranges
                0x0000000000000bd0       0x38 /home/james/devkitPro/libnds/lib/libnds9.a(decompress.o)
 .debug_aranges
                0x0000000000000c08       0x20 /home/james/devkitPro/libnds/lib/libnds9.a(syscalls.o)
 .debug_aranges
                0x0000000000000c28       0xc8 /home/james/devkitPro/libnds/lib/libnds9.a(biosCalls.o)

.debug_pubnames
 *(.debug_pubnames)

.debug_info     0x0000000000000000    0x24748
 *(.debug_info)
 .debug_info    0x0000000000000000     0x2dfa template.o
 .debug_info    0x0000000000002dfa     0x36bc /home/james/devkitPro/libnds/lib/libdswifi9.a(wifi_arm9.o)
 .debug_info    0x00000000000064b6     0x25d8 /home/james/devkitPro/libnds/lib/libdswifi9.a(sgIP_sockets.o)
 .debug_info    0x0000000000008a8e      0xe2d /home/james/devkitPro/libnds/lib/libdswifi9.a(sgIP_memblock.o)
 .debug_info    0x00000000000098bb     0x1f41 /home/james/devkitPro/libnds/lib/libdswifi9.a(sgIP_TCP.o)
 .debug_info    0x000000000000b7fc      0xfa2 /home/james/devkitPro/libnds/lib/libdswifi9.a(sgIP_Hub.o)
 .debug_info    0x000000000000c79e     0x181d /home/james/devkitPro/libnds/lib/libdswifi9.a(sgIP_DNS.o)
 .debug_info    0x000000000000dfbb       0xca /home/james/devkitPro/libnds/lib/libdswifi9.a(spinlock.o)
 .debug_info    0x000000000000e085     0x14eb /home/james/devkitPro/libnds/lib/libdswifi9.a(sgIP_DHCP.o)
 .debug_info    0x000000000000f570     0x137b /home/james/devkitPro/libnds/lib/libdswifi9.a(sgIP_UDP.o)
 .debug_info    0x00000000000108eb      0xb71 /home/james/devkitPro/libnds/lib/libdswifi9.a(sgIP.o)
 .debug_info    0x000000000001145c     0x1449 /home/james/devkitPro/libnds/lib/libdswifi9.a(sgIP_ARP.o)
 .debug_info    0x00000000000128a5      0xde7 /home/james/devkitPro/libnds/lib/libdswifi9.a(sgIP_IP.o)
 .debug_info    0x000000000001368c      0xb6d /home/james/devkitPro/libnds/lib/libdswifi9.a(sgIP_ICMP.o)
 .debug_info    0x00000000000141f9     0x2532 /home/james/devkitPro/libnds/lib/libnds9.a(console.o)
 .debug_info    0x000000000001672b      0xc62 /home/james/devkitPro/libnds/lib/libnds9.a(touch.o)
 .debug_info    0x000000000001738d     0x12ad /home/james/devkitPro/libnds/lib/libnds9.a(background.o)
 .debug_info    0x000000000001863a      0xdc9 /home/james/devkitPro/libnds/lib/libnds9.a(trig.o)
 .debug_info    0x0000000000019403     0x2787 /home/james/devkitPro/libnds/lib/libnds9.a(keyboard.o)
 .debug_info    0x000000000001bb8a      0xd37 /home/james/devkitPro/libnds/lib/libnds9.a(keys.o)
 .debug_info    0x000000000001c8c1     0x1c22 /home/james/devkitPro/libnds/lib/libnds9.a(initSystem.o)
 .debug_info    0x000000000001e4e3      0xa12 /home/james/devkitPro/libnds/lib/libnds9.a(timeSupport.o)
 .debug_info    0x000000000001eef5       0x54 /home/james/devkitPro/libnds/lib/libnds9.a(securearea.o)
 .debug_info    0x000000000001ef49      0x669 /home/james/devkitPro/libnds/lib/libnds9.a(interrupts.o)
 .debug_info    0x000000000001f5b2      0xc56 /home/james/devkitPro/libnds/lib/libnds9.a(libnds_exit.arm.o)
 .debug_info    0x0000000000020208     0x1f70 /home/james/devkitPro/libnds/lib/libnds9.a(fifosystem.o)
 .debug_info    0x0000000000022178       0xb4 /home/james/devkitPro/libnds/lib/libnds9.a(dcache.o)
 .debug_info    0x000000000002222c       0xbe /home/james/devkitPro/libnds/lib/libnds9.a(mpu_setup.o)
 .debug_info    0x00000000000222ea       0xbd /home/james/devkitPro/libnds/lib/libnds9.a(IntrWait.o)
 .debug_info    0x00000000000223a7       0xc2 /home/james/devkitPro/libnds/lib/libnds9.a(cpu_clock.o)
 .debug_info    0x0000000000022469       0xc7 /home/james/devkitPro/libnds/lib/libnds9.a(interruptDispatcher.o)
 .debug_info    0x0000000000022530       0xc0 /home/james/devkitPro/libnds/lib/libnds9.a(swiSoftReset.o)
 .debug_info    0x00000000000225f0      0x740 /home/james/devkitPro/libnds/lib/libnds9.a(video.o)
 .debug_info    0x0000000000022d30     0x125b /home/james/devkitPro/libnds/lib/libnds9.a(system.o)
 .debug_info    0x0000000000023f8b      0x409 /home/james/devkitPro/libnds/lib/libnds9.a(decompress.o)
 .debug_info    0x0000000000024394      0x2fb /home/james/devkitPro/libnds/lib/libnds9.a(syscalls.o)
 .debug_info    0x000000000002468f       0xb9 /home/james/devkitPro/libnds/lib/libnds9.a(biosCalls.o)

.debug_abbrev   0x0000000000000000     0x5c8f
 *(.debug_abbrev)
 .debug_abbrev  0x0000000000000000      0x4b3 template.o
 .debug_abbrev  0x00000000000004b3      0x602 /home/james/devkitPro/libnds/lib/libdswifi9.a(wifi_arm9.o)
 .debug_abbrev  0x0000000000000ab5      0x466 /home/james/devkitPro/libnds/lib/libdswifi9.a(sgIP_sockets.o)
 .debug_abbrev  0x0000000000000f1b      0x348 /home/james/devkitPro/libnds/lib/libdswifi9.a(sgIP_memblock.o)
 .debug_abbrev  0x0000000000001263      0x43d /home/james/devkitPro/libnds/lib/libdswifi9.a(sgIP_TCP.o)
 .debug_abbrev  0x00000000000016a0      0x2df /home/james/devkitPro/libnds/lib/libdswifi9.a(sgIP_Hub.o)
 .debug_abbrev  0x000000000000197f      0x44b /home/james/devkitPro/libnds/lib/libdswifi9.a(sgIP_DNS.o)
 .debug_abbrev  0x0000000000001dca       0x14 /home/james/devkitPro/libnds/lib/libdswifi9.a(spinlock.o)
 .debug_abbrev  0x0000000000001dde      0x393 /home/james/devkitPro/libnds/lib/libdswifi9.a(sgIP_DHCP.o)
 .debug_abbrev  0x0000000000002171      0x36d /home/james/devkitPro/libnds/lib/libdswifi9.a(sgIP_UDP.o)
 .debug_abbrev  0x00000000000024de      0x22b /home/james/devkitPro/libnds/lib/libdswifi9.a(sgIP.o)
 .debug_abbrev  0x0000000000002709      0x39c /home/james/devkitPro/libnds/lib/libdswifi9.a(sgIP_ARP.o)
 .debug_abbrev  0x0000000000002aa5      0x26c /home/james/devkitPro/libnds/lib/libdswifi9.a(sgIP_IP.o)
 .debug_abbrev  0x0000000000002d11      0x236 /home/james/devkitPro/libnds/lib/libdswifi9.a(sgIP_ICMP.o)
 .debug_abbrev  0x0000000000002f47      0x510 /home/james/devkitPro/libnds/lib/libnds9.a(console.o)
 .debug_abbrev  0x0000000000003457      0x231 /home/james/devkitPro/libnds/lib/libnds9.a(touch.o)
 .debug_abbrev  0x0000000000003688      0x3aa /home/james/devkitPro/libnds/lib/libnds9.a(background.o)
 .debug_abbrev  0x0000000000003a32      0x314 /home/james/devkitPro/libnds/lib/libnds9.a(trig.o)
 .debug_abbrev  0x0000000000003d46      0x4f1 /home/james/devkitPro/libnds/lib/libnds9.a(keyboard.o)
 .debug_abbrev  0x0000000000004237      0x282 /home/james/devkitPro/libnds/lib/libnds9.a(keys.o)
 .debug_abbrev  0x00000000000044b9      0x356 /home/james/devkitPro/libnds/lib/libnds9.a(initSystem.o)
 .debug_abbrev  0x000000000000480f      0x1da /home/james/devkitPro/libnds/lib/libnds9.a(timeSupport.o)
 .debug_abbrev  0x00000000000049e9       0x43 /home/james/devkitPro/libnds/lib/libnds9.a(securearea.o)
 .debug_abbrev  0x0000000000004a2c      0x288 /home/james/devkitPro/libnds/lib/libnds9.a(interrupts.o)
 .debug_abbrev  0x0000000000004cb4      0x287 /home/james/devkitPro/libnds/lib/libnds9.a(libnds_exit.arm.o)
 .debug_abbrev  0x0000000000004f3b      0x517 /home/james/devkitPro/libnds/lib/libnds9.a(fifosystem.o)
 .debug_abbrev  0x0000000000005452       0x12 /home/james/devkitPro/libnds/lib/libnds9.a(dcache.o)
 .debug_abbrev  0x0000000000005464       0x12 /home/james/devkitPro/libnds/lib/libnds9.a(mpu_setup.o)
 .debug_abbrev  0x0000000000005476       0x12 /home/james/devkitPro/libnds/lib/libnds9.a(IntrWait.o)
 .debug_abbrev  0x0000000000005488       0x14 /home/james/devkitPro/libnds/lib/libnds9.a(cpu_clock.o)
 .debug_abbrev  0x000000000000549c       0x14 /home/james/devkitPro/libnds/lib/libnds9.a(interruptDispatcher.o)
 .debug_abbrev  0x00000000000054b0       0x14 /home/james/devkitPro/libnds/lib/libnds9.a(swiSoftReset.o)
 .debug_abbrev  0x00000000000054c4      0x1e4 /home/james/devkitPro/libnds/lib/libnds9.a(video.o)
 .debug_abbrev  0x00000000000056a8      0x314 /home/james/devkitPro/libnds/lib/libnds9.a(system.o)
 .debug_abbrev  0x00000000000059bc      0x18b /home/james/devkitPro/libnds/lib/libnds9.a(decompress.o)
 .debug_abbrev  0x0000000000005b47      0x136 /home/james/devkitPro/libnds/lib/libnds9.a(syscalls.o)
 .debug_abbrev  0x0000000000005c7d       0x12 /home/james/devkitPro/libnds/lib/libnds9.a(biosCalls.o)

.debug_line     0x0000000000000000     0x9033
 *(.debug_line)
 .debug_line    0x0000000000000000      0x58a template.o
 .debug_line    0x000000000000058a      0xc85 /home/james/devkitPro/libnds/lib/libdswifi9.a(wifi_arm9.o)
 .debug_line    0x000000000000120f      0xc06 /home/james/devkitPro/libnds/lib/libdswifi9.a(sgIP_sockets.o)
 .debug_line    0x0000000000001e15      0x3a4 /home/james/devkitPro/libnds/lib/libdswifi9.a(sgIP_memblock.o)
 .debug_line    0x00000000000021b9      0xa67 /home/james/devkitPro/libnds/lib/libdswifi9.a(sgIP_TCP.o)
 .debug_line    0x0000000000002c20      0x352 /home/james/devkitPro/libnds/lib/libdswifi9.a(sgIP_Hub.o)
 .debug_line    0x0000000000002f72      0x75b /home/james/devkitPro/libnds/lib/libdswifi9.a(sgIP_DNS.o)
 .debug_line    0x00000000000036cd       0xa1 /home/james/devkitPro/libnds/lib/libdswifi9.a(spinlock.o)
 .debug_line    0x000000000000376e      0x602 /home/james/devkitPro/libnds/lib/libdswifi9.a(sgIP_DHCP.o)
 .debug_line    0x0000000000003d70      0x4df /home/james/devkitPro/libnds/lib/libdswifi9.a(sgIP_UDP.o)
 .debug_line    0x000000000000424f      0x2d9 /home/james/devkitPro/libnds/lib/libdswifi9.a(sgIP.o)
 .debug_line    0x0000000000004528      0x4c7 /home/james/devkitPro/libnds/lib/libdswifi9.a(sgIP_ARP.o)
 .debug_line    0x00000000000049ef      0x2c1 /home/james/devkitPro/libnds/lib/libdswifi9.a(sgIP_IP.o)
 .debug_line    0x0000000000004cb0      0x232 /home/james/devkitPro/libnds/lib/libdswifi9.a(sgIP_ICMP.o)
 .debug_line    0x0000000000004ee2      0x771 /home/james/devkitPro/libnds/lib/libnds9.a(console.o)
 .debug_line    0x0000000000005653      0x2cc /home/james/devkitPro/libnds/lib/libnds9.a(touch.o)
 .debug_line    0x000000000000591f      0x3fb /home/james/devkitPro/libnds/lib/libnds9.a(background.o)
 .debug_line    0x0000000000005d1a      0x3ab /home/james/devkitPro/libnds/lib/libnds9.a(trig.o)
 .debug_line    0x00000000000060c5      0x80d /home/james/devkitPro/libnds/lib/libnds9.a(keyboard.o)
 .debug_line    0x00000000000068d2      0x32f /home/james/devkitPro/libnds/lib/libnds9.a(keys.o)
 .debug_line    0x0000000000006c01      0x3b5 /home/james/devkitPro/libnds/lib/libnds9.a(initSystem.o)
 .debug_line    0x0000000000006fb6      0x1e3 /home/james/devkitPro/libnds/lib/libnds9.a(timeSupport.o)
 .debug_line    0x0000000000007199       0x7c /home/james/devkitPro/libnds/lib/libnds9.a(securearea.o)
 .debug_line    0x0000000000007215      0x2e3 /home/james/devkitPro/libnds/lib/libnds9.a(interrupts.o)
 .debug_line    0x00000000000074f8      0x26c /home/james/devkitPro/libnds/lib/libnds9.a(libnds_exit.arm.o)
 .debug_line    0x0000000000007764      0x869 /home/james/devkitPro/libnds/lib/libnds9.a(fifosystem.o)
 .debug_line    0x0000000000007fcd       0xcd /home/james/devkitPro/libnds/lib/libnds9.a(dcache.o)
 .debug_line    0x000000000000809a      0x129 /home/james/devkitPro/libnds/lib/libnds9.a(mpu_setup.o)
 .debug_line    0x00000000000081c3       0xb1 /home/james/devkitPro/libnds/lib/libnds9.a(IntrWait.o)
 .debug_line    0x0000000000008274       0x9d /home/james/devkitPro/libnds/lib/libnds9.a(cpu_clock.o)
 .debug_line    0x0000000000008311       0xc6 /home/james/devkitPro/libnds/lib/libnds9.a(interruptDispatcher.o)
 .debug_line    0x00000000000083d7       0x96 /home/james/devkitPro/libnds/lib/libnds9.a(swiSoftReset.o)
 .debug_line    0x000000000000846d      0x29d /home/james/devkitPro/libnds/lib/libnds9.a(video.o)
 .debug_line    0x000000000000870a      0x397 /home/james/devkitPro/libnds/lib/libnds9.a(system.o)
 .debug_line    0x0000000000008aa1      0x21e /home/james/devkitPro/libnds/lib/libnds9.a(decompress.o)
 .debug_line    0x0000000000008cbf      0x188 /home/james/devkitPro/libnds/lib/libnds9.a(syscalls.o)
 .debug_line    0x0000000000008e47      0x1ec /home/james/devkitPro/libnds/lib/libnds9.a(biosCalls.o)

.debug_frame    0x0000000000000000     0x1e8c
 *(.debug_frame)
 .debug_frame   0x0000000000000000      0x138 template.o
 .debug_frame   0x0000000000000138      0x42c /home/james/devkitPro/libnds/lib/libdswifi9.a(wifi_arm9.o)
 .debug_frame   0x0000000000000564      0x2d4 /home/james/devkitPro/libnds/lib/libdswifi9.a(sgIP_sockets.o)
 .debug_frame   0x0000000000000838      0x110 /home/james/devkitPro/libnds/lib/libdswifi9.a(sgIP_memblock.o)
 .debug_frame   0x0000000000000948      0x24c /home/james/devkitPro/libnds/lib/libdswifi9.a(sgIP_TCP.o)
 .debug_frame   0x0000000000000b94      0x118 /home/james/devkitPro/libnds/lib/libdswifi9.a(sgIP_Hub.o)
 .debug_frame   0x0000000000000cac      0x17c /home/james/devkitPro/libnds/lib/libdswifi9.a(sgIP_DNS.o)
 .debug_frame   0x0000000000000e28      0x140 /home/james/devkitPro/libnds/lib/libdswifi9.a(sgIP_DHCP.o)
 .debug_frame   0x0000000000000f68      0x134 /home/james/devkitPro/libnds/lib/libdswifi9.a(sgIP_UDP.o)
 .debug_frame   0x000000000000109c       0x40 /home/james/devkitPro/libnds/lib/libdswifi9.a(sgIP.o)
 .debug_frame   0x00000000000010dc      0x17c /home/james/devkitPro/libnds/lib/libdswifi9.a(sgIP_ARP.o)
 .debug_frame   0x0000000000001258       0x94 /home/james/devkitPro/libnds/lib/libdswifi9.a(sgIP_IP.o)
 .debug_frame   0x00000000000012ec       0x44 /home/james/devkitPro/libnds/lib/libdswifi9.a(sgIP_ICMP.o)
 .debug_frame   0x0000000000001330      0x1a0 /home/james/devkitPro/libnds/lib/libnds9.a(console.o)
 .debug_frame   0x00000000000014d0       0x3c /home/james/devkitPro/libnds/lib/libnds9.a(touch.o)
 .debug_frame   0x000000000000150c       0xc0 /home/james/devkitPro/libnds/lib/libnds9.a(background.o)
 .debug_frame   0x00000000000015cc       0xd0 /home/james/devkitPro/libnds/lib/libnds9.a(trig.o)
 .debug_frame   0x000000000000169c      0x190 /home/james/devkitPro/libnds/lib/libnds9.a(keyboard.o)
 .debug_frame   0x000000000000182c       0x8c /home/james/devkitPro/libnds/lib/libnds9.a(keys.o)
 .debug_frame   0x00000000000018b8       0x28 /home/james/devkitPro/libnds/lib/libnds9.a(initSystem.o)
 .debug_frame   0x00000000000018e0       0x20 /home/james/devkitPro/libnds/lib/libnds9.a(timeSupport.o)
 .debug_frame   0x0000000000001900       0xa4 /home/james/devkitPro/libnds/lib/libnds9.a(interrupts.o)
 .debug_frame   0x00000000000019a4       0x3c /home/james/devkitPro/libnds/lib/libnds9.a(libnds_exit.arm.o)
 .debug_frame   0x00000000000019e0      0x2a0 /home/james/devkitPro/libnds/lib/libnds9.a(fifosystem.o)
 .debug_frame   0x0000000000001c80       0xb8 /home/james/devkitPro/libnds/lib/libnds9.a(video.o)
 .debug_frame   0x0000000000001d38       0xc8 /home/james/devkitPro/libnds/lib/libnds9.a(system.o)
 .debug_frame   0x0000000000001e00       0x64 /home/james/devkitPro/libnds/lib/libnds9.a(decompress.o)
 .debug_frame   0x0000000000001e64       0x28 /home/james/devkitPro/libnds/lib/libnds9.a(syscalls.o)

.debug_str      0x0000000000000000     0x6754
 *(.debug_str)
 .debug_str     0x0000000000000000     0x18cd template.o
                                       0x1a60 (size before relaxing)
 .debug_str     0x00000000000018cd     0x11a4 /home/james/devkitPro/libnds/lib/libdswifi9.a(wifi_arm9.o)
                                       0x20f1 (size before relaxing)
 .debug_str     0x0000000000002a71      0x680 /home/james/devkitPro/libnds/lib/libdswifi9.a(sgIP_sockets.o)
                                        0xdf6 (size before relaxing)
 .debug_str     0x00000000000030f1      0x1c3 /home/james/devkitPro/libnds/lib/libdswifi9.a(sgIP_memblock.o)
                                        0x876 (size before relaxing)
 .debug_str     0x00000000000032b4      0x2e7 /home/james/devkitPro/libnds/lib/libdswifi9.a(sgIP_TCP.o)
                                        0xd75 (size before relaxing)
 .debug_str     0x000000000000359b      0x1fa /home/james/devkitPro/libnds/lib/libdswifi9.a(sgIP_Hub.o)
                                        0x946 (size before relaxing)
 .debug_str     0x0000000000003795      0x24f /home/james/devkitPro/libnds/lib/libdswifi9.a(sgIP_DNS.o)
                                        0xaf9 (size before relaxing)
 .debug_str     0x00000000000039e4      0x241 /home/james/devkitPro/libnds/lib/libdswifi9.a(sgIP_DHCP.o)
                                        0xb04 (size before relaxing)
 .debug_str     0x0000000000003c25      0x146 /home/james/devkitPro/libnds/lib/libdswifi9.a(sgIP_UDP.o)
                                        0x9c3 (size before relaxing)
 .debug_str     0x0000000000003d6b       0x89 /home/james/devkitPro/libnds/lib/libdswifi9.a(sgIP.o)
                                        0x76f (size before relaxing)
 .debug_str     0x0000000000003df4      0x21e /home/james/devkitPro/libnds/lib/libdswifi9.a(sgIP_ARP.o)
                                        0x9b2 (size before relaxing)
 .debug_str     0x0000000000004012      0x111 /home/james/devkitPro/libnds/lib/libdswifi9.a(sgIP_IP.o)
                                        0x8c0 (size before relaxing)
 .debug_str     0x0000000000004123       0x89 /home/james/devkitPro/libnds/lib/libdswifi9.a(sgIP_ICMP.o)
                                        0x72a (size before relaxing)
 .debug_str     0x00000000000041ac      0x724 /home/james/devkitPro/libnds/lib/libnds9.a(console.o)
                                       0x13d8 (size before relaxing)
 .debug_str     0x00000000000048d0       0xff /home/james/devkitPro/libnds/lib/libnds9.a(touch.o)
                                        0x7cf (size before relaxing)
 .debug_str     0x00000000000049cf      0x2ae /home/james/devkitPro/libnds/lib/libnds9.a(background.o)
                                        0xb65 (size before relaxing)
 .debug_str     0x0000000000004c7d       0xf5 /home/james/devkitPro/libnds/lib/libnds9.a(trig.o)
                                        0x6c3 (size before relaxing)
 .debug_str     0x0000000000004d72      0x2ed /home/james/devkitPro/libnds/lib/libnds9.a(keyboard.o)
                                       0x132c (size before relaxing)
 .debug_str     0x000000000000505f       0x9f /home/james/devkitPro/libnds/lib/libnds9.a(keys.o)
                                        0x856 (size before relaxing)
 .debug_str     0x00000000000050fe       0xf9 /home/james/devkitPro/libnds/lib/libnds9.a(initSystem.o)
                                       0x1225 (size before relaxing)
 .debug_str     0x00000000000051f7       0x6b /home/james/devkitPro/libnds/lib/libnds9.a(timeSupport.o)
                                        0x696 (size before relaxing)
 .debug_str     0x0000000000005262       0x6c /home/james/devkitPro/libnds/lib/libnds9.a(securearea.o)
                                        0x102 (size before relaxing)
 .debug_str     0x00000000000052ce      0x13d /home/james/devkitPro/libnds/lib/libnds9.a(interrupts.o)
                                        0x499 (size before relaxing)
 .debug_str     0x000000000000540b      0x1cf /home/james/devkitPro/libnds/lib/libnds9.a(libnds_exit.arm.o)
                                        0x868 (size before relaxing)
 .debug_str     0x00000000000055da      0x496 /home/james/devkitPro/libnds/lib/libnds9.a(fifosystem.o)
                                        0xd5e (size before relaxing)
 .debug_str     0x0000000000005a70      0x7b9 /home/james/devkitPro/libnds/lib/libnds9.a(video.o)
                                        0xc11 (size before relaxing)
 .debug_str     0x0000000000006229      0x30a /home/james/devkitPro/libnds/lib/libnds9.a(system.o)
                                        0xbd5 (size before relaxing)
 .debug_str     0x0000000000006533      0x17d /home/james/devkitPro/libnds/lib/libnds9.a(decompress.o)
                                        0x334 (size before relaxing)
 .debug_str     0x00000000000066b0       0xa4 /home/james/devkitPro/libnds/lib/libnds9.a(syscalls.o)
                                        0x30b (size before relaxing)

.debug_loc      0x0000000000000000     0xcdee
 *(.debug_loc)
 .debug_loc     0x0000000000000000      0x3eb template.o
 .debug_loc     0x00000000000003eb     0x136a /home/james/devkitPro/libnds/lib/libdswifi9.a(wifi_arm9.o)
 .debug_loc     0x0000000000001755     0x1aca /home/james/devkitPro/libnds/lib/libdswifi9.a(sgIP_sockets.o)
 .debug_loc     0x000000000000321f      0x54f /home/james/devkitPro/libnds/lib/libdswifi9.a(sgIP_memblock.o)
 .debug_loc     0x000000000000376e     0x1cb2 /home/james/devkitPro/libnds/lib/libdswifi9.a(sgIP_TCP.o)
 .debug_loc     0x0000000000005420      0x47f /home/james/devkitPro/libnds/lib/libdswifi9.a(sgIP_Hub.o)
 .debug_loc     0x000000000000589f      0xd61 /home/james/devkitPro/libnds/lib/libdswifi9.a(sgIP_DNS.o)
 .debug_loc     0x0000000000006600      0x6f1 /home/james/devkitPro/libnds/lib/libdswifi9.a(sgIP_DHCP.o)
 .debug_loc     0x0000000000006cf1      0x921 /home/james/devkitPro/libnds/lib/libdswifi9.a(sgIP_UDP.o)
 .debug_loc     0x0000000000007612       0x5b /home/james/devkitPro/libnds/lib/libdswifi9.a(sgIP.o)
 .debug_loc     0x000000000000766d      0xbce /home/james/devkitPro/libnds/lib/libdswifi9.a(sgIP_ARP.o)
 .debug_loc     0x000000000000823b      0x1f4 /home/james/devkitPro/libnds/lib/libdswifi9.a(sgIP_IP.o)
 .debug_loc     0x000000000000842f       0xab /home/james/devkitPro/libnds/lib/libdswifi9.a(sgIP_ICMP.o)
 .debug_loc     0x00000000000084da     0x108e /home/james/devkitPro/libnds/lib/libnds9.a(console.o)
 .debug_loc     0x0000000000009568       0xa5 /home/james/devkitPro/libnds/lib/libnds9.a(touch.o)
 .debug_loc     0x000000000000960d      0x413 /home/james/devkitPro/libnds/lib/libnds9.a(background.o)
 .debug_loc     0x0000000000009a20      0x7ef /home/james/devkitPro/libnds/lib/libnds9.a(trig.o)
 .debug_loc     0x000000000000a20f      0xca0 /home/james/devkitPro/libnds/lib/libnds9.a(keyboard.o)
 .debug_loc     0x000000000000aeaf       0xd8 /home/james/devkitPro/libnds/lib/libnds9.a(initSystem.o)
 .debug_loc     0x000000000000af87       0x21 /home/james/devkitPro/libnds/lib/libnds9.a(timeSupport.o)
 .debug_loc     0x000000000000afa8      0x1aa /home/james/devkitPro/libnds/lib/libnds9.a(interrupts.o)
 .debug_loc     0x000000000000b152       0x58 /home/james/devkitPro/libnds/lib/libnds9.a(libnds_exit.arm.o)
 .debug_loc     0x000000000000b1aa     0x1310 /home/james/devkitPro/libnds/lib/libnds9.a(fifosystem.o)
 .debug_loc     0x000000000000c4ba      0x312 /home/james/devkitPro/libnds/lib/libnds9.a(video.o)
 .debug_loc     0x000000000000c7cc      0x1f9 /home/james/devkitPro/libnds/lib/libnds9.a(system.o)
 .debug_loc     0x000000000000c9c5      0x341 /home/james/devkitPro/libnds/lib/libnds9.a(decompress.o)
 .debug_loc     0x000000000000cd06       0xe8 /home/james/devkitPro/libnds/lib/libnds9.a(syscalls.o)

.debug_macinfo
 *(.debug_macinfo)

.debug_weaknames
 *(.debug_weaknames)

.debug_funcnames
 *(.debug_funcnames)

.debug_typenames
 *(.debug_typenames)

.debug_varnames
 *(.debug_varnames)

.stack          0x0000000000080000        0x0
                0x0000000000080000                _stack = .
 *(.stack)
LOAD /home/james/devkitPro/devkitARM/bin/../lib/gcc/arm-none-eabi/6.3.0/../../../../arm-none-eabi/lib/thumb/ds_arm9_crt0.o
LOAD /home/james/devkitPro/devkitARM/bin/../lib/gcc/arm-none-eabi/6.3.0/thumb/crti.o
LOAD /home/james/devkitPro/devkitARM/bin/../lib/gcc/arm-none-eabi/6.3.0/thumb/crtbegin.o
LOAD template.o
LOAD /home/james/devkitPro/libnds/lib/libdswifi9.a
LOAD /home/james/devkitPro/libnds/lib/libfat.a
LOAD /home/james/devkitPro/libnds/lib/libmm9.a
LOAD /home/james/devkitPro/libnds/lib/libnds9.a
START GROUP
LOAD /home/james/devkitPro/devkitARM/bin/../lib/gcc/arm-none-eabi/6.3.0/thumb/libgcc.a
LOAD /home/james/devkitPro/devkitARM/bin/../lib/gcc/arm-none-eabi/6.3.0/../../../../arm-none-eabi/lib/thumb/libg.a
LOAD /home/james/devkitPro/devkitARM/bin/../lib/gcc/arm-none-eabi/6.3.0/../../../../arm-none-eabi/lib/thumb/libc.a
LOAD /home/james/devkitPro/devkitARM/bin/../lib/gcc/arm-none-eabi/6.3.0/../../../../arm-none-eabi/lib/thumb/libsysbase.a
END GROUP
LOAD /home/james/devkitPro/devkitARM/bin/../lib/gcc/arm-none-eabi/6.3.0/thumb/crtend.o
LOAD /home/james/devkitPro/devkitARM/bin/../lib/gcc/arm-none-eabi/6.3.0/thumb/crtn.o
OUTPUT(/home/james/Programming_Projects/autobot_nds_remote/autobot_nds_remote.elf elf32-littlearm)

.debug_ranges   0x0000000000000000     0x1d58
 .debug_ranges  0x0000000000000000       0xf0 template.o
 .debug_ranges  0x00000000000000f0      0x348 /home/james/devkitPro/libnds/lib/libdswifi9.a(wifi_arm9.o)
 .debug_ranges  0x0000000000000438      0x3d8 /home/james/devkitPro/libnds/lib/libdswifi9.a(sgIP_sockets.o)
 .debug_ranges  0x0000000000000810       0x70 /home/james/devkitPro/libnds/lib/libdswifi9.a(sgIP_memblock.o)
 .debug_ranges  0x0000000000000880      0x1c0 /home/james/devkitPro/libnds/lib/libdswifi9.a(sgIP_TCP.o)
 .debug_ranges  0x0000000000000a40       0x88 /home/james/devkitPro/libnds/lib/libdswifi9.a(sgIP_Hub.o)
 .debug_ranges  0x0000000000000ac8      0x138 /home/james/devkitPro/libnds/lib/libdswifi9.a(sgIP_DNS.o)
 .debug_ranges  0x0000000000000c00       0x60 /home/james/devkitPro/libnds/lib/libdswifi9.a(sgIP_DHCP.o)
 .debug_ranges  0x0000000000000c60       0xd8 /home/james/devkitPro/libnds/lib/libdswifi9.a(sgIP_UDP.o)
 .debug_ranges  0x0000000000000d38       0x18 /home/james/devkitPro/libnds/lib/libdswifi9.a(sgIP.o)
 .debug_ranges  0x0000000000000d50       0xa0 /home/james/devkitPro/libnds/lib/libdswifi9.a(sgIP_ARP.o)
 .debug_ranges  0x0000000000000df0       0x30 /home/james/devkitPro/libnds/lib/libdswifi9.a(sgIP_IP.o)
 .debug_ranges  0x0000000000000e20       0x18 /home/james/devkitPro/libnds/lib/libdswifi9.a(sgIP_ICMP.o)
 .debug_ranges  0x0000000000000e38      0x240 /home/james/devkitPro/libnds/lib/libnds9.a(console.o)
 .debug_ranges  0x0000000000001078       0x30 /home/james/devkitPro/libnds/lib/libnds9.a(touch.o)
 .debug_ranges  0x00000000000010a8       0xd8 /home/james/devkitPro/libnds/lib/libnds9.a(background.o)
 .debug_ranges  0x0000000000001180       0xc8 /home/james/devkitPro/libnds/lib/libnds9.a(trig.o)
 .debug_ranges  0x0000000000001248      0x328 /home/james/devkitPro/libnds/lib/libnds9.a(keyboard.o)
 .debug_ranges  0x0000000000001570       0x40 /home/james/devkitPro/libnds/lib/libnds9.a(keys.o)
 .debug_ranges  0x00000000000015b0       0x10 /home/james/devkitPro/libnds/lib/libnds9.a(initSystem.o)
 .debug_ranges  0x00000000000015c0       0x10 /home/james/devkitPro/libnds/lib/libnds9.a(timeSupport.o)
 .debug_ranges  0x00000000000015d0       0xe8 /home/james/devkitPro/libnds/lib/libnds9.a(interrupts.o)
 .debug_ranges  0x00000000000016b8       0x18 /home/james/devkitPro/libnds/lib/libnds9.a(libnds_exit.arm.o)
 .debug_ranges  0x00000000000016d0      0x460 /home/james/devkitPro/libnds/lib/libnds9.a(fifosystem.o)
 .debug_ranges  0x0000000000001b30       0x30 /home/james/devkitPro/libnds/lib/libnds9.a(dcache.o)
 .debug_ranges  0x0000000000001b60       0x28 /home/james/devkitPro/libnds/lib/libnds9.a(mpu_setup.o)
 .debug_ranges  0x0000000000001b88       0x20 /home/james/devkitPro/libnds/lib/libnds9.a(IntrWait.o)
 .debug_ranges  0x0000000000001ba8       0x70 /home/james/devkitPro/libnds/lib/libnds9.a(video.o)
 .debug_ranges  0x0000000000001c18       0x48 /home/james/devkitPro/libnds/lib/libnds9.a(system.o)
 .debug_ranges  0x0000000000001c60       0x28 /home/james/devkitPro/libnds/lib/libnds9.a(decompress.o)
 .debug_ranges  0x0000000000001c88       0x10 /home/james/devkitPro/libnds/lib/libnds9.a(syscalls.o)
 .debug_ranges  0x0000000000001c98       0xc0 /home/james/devkitPro/libnds/lib/libnds9.a(biosCalls.o)
